
.\rom_0x08003000.elf:     file format elf32-littlearm
.\rom_0x08003000.elf
architecture: arm, flags 0x00000112:
EXEC_P, HAS_SYMS, D_PAGED
start address 0x08003000

Program Header:
0x70000001 off    0x0000a448 vaddr 0x0800a448 paddr 0x0800a448 align 2**2
         filesz 0x00000008 memsz 0x00000008 flags r--
    LOAD off    0x00000000 vaddr 0x08000000 paddr 0x08000000 align 2**15
         filesz 0x0000a960 memsz 0x0000a960 flags r-x
    LOAD off    0x00010000 vaddr 0x20000000 paddr 0x0800a960 align 2**15
         filesz 0x00000584 memsz 0x000005e0 flags rw-
private flags = 5000202: [Version5 EABI] [soft-float ABI] [has entry point]

Sections:
Idx Name          Size      VMA       LMA       File off  Algn
  0 .text         00007448  08003000  08003000  00003000  2**3
                  CONTENTS, ALLOC, LOAD, READONLY, CODE
  1 .ARM.exidx    00000008  0800a448  0800a448  0000a448  2**2
                  CONTENTS, ALLOC, LOAD, READONLY, DATA
  2 .rodata       00000510  0800a450  0800a450  0000a450  2**3
                  CONTENTS, ALLOC, LOAD, READONLY, DATA
  3 .data         00000584  20000000  0800a960  00010000  2**2
                  CONTENTS, ALLOC, LOAD, DATA
  4 .bss          0000005c  20000584  0800aee4  00010584  2**2
                  ALLOC
  5 .debug_info   00003deb  00000000  00000000  00010584  2**0
                  CONTENTS, READONLY, DEBUGGING
  6 .debug_abbrev 00001112  00000000  00000000  0001436f  2**0
                  CONTENTS, READONLY, DEBUGGING
  7 .debug_aranges 000001a0  00000000  00000000  00015488  2**3
                  CONTENTS, READONLY, DEBUGGING
  8 .debug_line   00000c7b  00000000  00000000  00015628  2**0
                  CONTENTS, READONLY, DEBUGGING
  9 .debug_str    00001041  00000000  00000000  000162a3  2**0
                  CONTENTS, READONLY, DEBUGGING
 10 .comment      00000030  00000000  00000000  000172e4  2**0
                  CONTENTS, READONLY
 11 .ARM.attributes 00000031  00000000  00000000  00017314  2**0
                  CONTENTS, READONLY
 12 .debug_frame  00001290  00000000  00000000  00017348  2**2
                  CONTENTS, READONLY, DEBUGGING
 13 .debug_loc    00000ba4  00000000  00000000  000185d8  2**0
                  CONTENTS, READONLY, DEBUGGING
 14 .debug_ranges 00000170  00000000  00000000  0001917c  2**0
                  CONTENTS, READONLY, DEBUGGING
SYMBOL TABLE:
08003000 l    d  .text	00000000 .text
0800a448 l    d  .ARM.exidx	00000000 .ARM.exidx
0800a450 l    d  .rodata	00000000 .rodata
20000000 l    d  .data	00000000 .data
20000584 l    d  .bss	00000000 .bss
00000000 l    d  .debug_info	00000000 .debug_info
00000000 l    d  .debug_abbrev	00000000 .debug_abbrev
00000000 l    d  .debug_aranges	00000000 .debug_aranges
00000000 l    d  .debug_line	00000000 .debug_line
00000000 l    d  .debug_str	00000000 .debug_str
00000000 l    d  .comment	00000000 .comment
00000000 l    d  .ARM.attributes	00000000 .ARM.attributes
00000000 l    d  .debug_frame	00000000 .debug_frame
00000000 l    d  .debug_loc	00000000 .debug_loc
00000000 l    d  .debug_ranges	00000000 .debug_ranges
00000000 l    df *ABS*	00000000 crt0.o
20004fff l       *ABS*	00000000 RAM_END
20004c00 l       *ABS*	00000000 PSP_BASE
20004c00 l       *ABS*	00000000 MSP_LIMIT
20005000 l       *ABS*	00000000 MSP_BASE
00000400 l       *ABS*	00000000 MSP_SIZE
08003179 l       .text	00000000 _PSR
0800313a l       .text	00000000 _loop
0800316c l       .text	00000000 fmt
0800317d l       .text	00000000 _r0
08003181 l       .text	00000000 _r1
08003185 l       .text	00000000 _r2
08003189 l       .text	00000000 _r3
0800318d l       .text	00000000 _r4
08003191 l       .text	00000000 _r5
08003195 l       .text	00000000 _r6
08003199 l       .text	00000000 _r7
0800319d l       .text	00000000 _r8
080031a1 l       .text	00000000 _r9
080031a5 l       .text	00000000 _r10
080031a9 l       .text	00000000 _r11
080031ad l       .text	00000000 _r12
080031b1 l       .text	00000000 _PSP
00000000 l    df *ABS*	00000000 clock.c
00000000 l    df *ABS*	00000000 core_cm3.c
00000000 l    df *ABS*	00000000 i2c.c
00000000 l    df *ABS*	00000000 key.c
00000000 l    df *ABS*	00000000 led.c
00000000 l    df *ABS*	00000000 main.c
20000584 l       .bss	00000000 .LANCHOR0
20000000 l       .data	00000000 .LANCHOR1
00000000 l    df *ABS*	00000000 motor.c
00000000 l    df *ABS*	00000000 runtime.c
20000588 l       .bss	00000000 .LANCHOR0
20000588 l     O .bss	00000004 heap.4816
00000000 l    df *ABS*	00000000 stm32f10x_it.c
080039d8 l     F .text	00000038 Stack_Dump
2000058c l       .bss	00000000 .LANCHOR1
0800a450 l     O .rodata	00000020 Stack_reg
00000000 l    df *ABS*	00000000 systick.c
00000000 l    df *ABS*	00000000 timer.c
00000000 l    df *ABS*	00000000 uart.c
00000000 l    df *ABS*	00000000 vsprintf.c
00000000 l    df *ABS*	00000000 impure.c
20000008 l     O .data	000000f0 impure_data
00000000 l    df *ABS*	00000000 vfprintf.c
0800a474 l       .rodata	00000000 .LANCHOR0
0800a474 l     O .rodata	00000010 blanks.6752
0800a484 l     O .rodata	00000010 zeroes.6753
00000000 l    df *ABS*	00000000 dtoa.c
08005858 l     F .text	0000014a quorem
00000000 l    df *ABS*	00000000 locale.c
200000f8 l       .data	00000000 .LANCHOR0
200000f8 l     O .data	00000020 lc_ctype_charset
2000011c l     O .data	00000020 lc_message_charset
2000013c l     O .data	00000038 lconv
00000000 l    df *ABS*	00000000 malloc.c
00000000 l    df *ABS*	00000000 mallocr.c
20000174 l       .data	00000000 .LANCHOR0
200005a8 l       .bss	00000000 .LANCHOR1
00000000 l    df *ABS*	00000000 memchr-stub.c
00000000 l    df *ABS*	00000000 memcpy-stub.c
00000000 l    df *ABS*	00000000 mlock.c
00000000 l    df *ABS*	00000000 mprec.c
0800a498 l       .rodata	00000000 .LANCHOR0
0800a498 l     O .rodata	0000000c p05.5301
00000000 l    df *ABS*	00000000 s_fpclassify.c
00000000 l    df *ABS*	00000000 sbrkr.c
00000000 l    df *ABS*	00000000 lib_a-strcmp.o
00000000 l    df *ABS*	00000000 strlen.c
00000000 l    df *ABS*	00000000 vfprintf.c
0800a5c0 l       .rodata	00000000 .LANCHOR0
0800a5c0 l     O .rodata	00000010 blanks.6696
0800a5d0 l     O .rodata	00000010 zeroes.6697
00000000 l    df *ABS*	00000000 mallocr.c
00000000 l    df *ABS*	00000000 mallocr.c
00000000 l    df *ABS*	00000000 memmove.c
00000000 l    df *ABS*	00000000 memset.c
00000000 l    df *ABS*	00000000 mallocr.c
00000000 l    df *ABS*	00000000 reent.c
00000000 l    df *ABS*	00000000 _udivsi3.o
080091b8 l       .text	00000000 .udivsi3_skip_div0_test
00000000 l       *ABS*	00000000 shift
00000000 l    df *ABS*	00000000 _dvmd_tls.o
00000000 l    df *ABS*	00000000 _arm_addsubdf3.o
00000000 l    df *ABS*	00000000 _arm_muldivdf3.o
00000000 l    df *ABS*	00000000 _arm_cmpdf2.o
00000000 l    df *ABS*	00000000 _arm_fixdfsi.o
00000000 l    df *ABS*	00000000 _arm_fixunsdfsi.o
00000000 l    df *ABS*	00000000 _aeabi_uldivmod.o
00000000 l    df *ABS*	00000000 bpabi.c
00000000 l    df *ABS*	00000000 libgcc2.c
00000000 l    df *ABS*	00000000 libgcc2.c
00000000 l    df *ABS*	00000000 
08003c30 g     F .text	00000006 EXTI2_IRQHandler
20000000 g     O .data	00000004 speed_level
0800327c g     F .text	00000006 __set_PRIMASK
080078f8 g     F .text	00000034 _mprec_log10
08007974 g     F .text	0000005e __any_on
0800a570 g     O .rodata	00000028 __mprec_tinytens
08009c9c g     F .text	00000012 .hidden __aeabi_dcmple
080090c4 g     F .text	0000001a cleanup_glue
08009dc4 g     F .text	00000030 .hidden __gnu_uldivmod_helper
08003574 g     F .text	00000026 Key_Poll_Init
08009bd8 g     F .text	0000007a .hidden __cmpdf2
08003bc0 g     F .text	00000010 DebugMon_Handler
08009bd8 g     F .text	0000007a .hidden __eqdf2
08003930 g     F .text	0000000e Motor_Stop
08009df4 g     F .text	00000352 .hidden __divdi3
08009748 g     F .text	0000005a .hidden __floatdidf
08004384 g     F .text	0000001a vsprintf
08003cf4 g     F .text	00000006 TIM1_CC_IRQHandler
08003a54 g     F .text	0000012a HardFault_Handler
08006930 g     F .text	00000052 _setlocale_r
08007098 g     F .text	00000002 __malloc_unlock
08003284 g     F .text	00000006 __get_FAULTMASK
08003be0 g     F .text	0000000e SysTick_Handler
080032a4 g     F .text	00000004 __REV
08003bf8 g     F .text	00000006 PVD_IRQHandler
08008b68 g     F .text	000000ce memmove
08003bd0 g     F .text	00000010 PendSV_Handler
08003a44 g     F .text	00000010 NMI_Handler
0800709c g     F .text	0000006c _Balloc
08003c38 g     F .text	00000006 EXTI3_IRQHandler
08009bc8 g     F .text	0000008a .hidden __gtdf2
080032e0 g     F .text	00000006 __STREXW
080034f0 g     F .text	00000082 I2C_Write_GPIO
080032c8 g     F .text	00000006 __LDREXW
200005dc g     O .bss	00000004 errno
08009c64 g     F .text	00000010 .hidden __aeabi_cdcmple
08003e04 g     F .text	0000000c SysTick_Get_Load_Time
08003740 g     F .text	000000bc Main
20000594 g     O .bss	00000004 Uart1_Rx_Data
08003e68 g     F .text	0000003e TIM2_Stopwatch_Start
08003960 g     F .text	00000034 control_led_with_i2c
08006fec g     F .text	000000a6 memcpy
08009c54 g     F .text	00000020 .hidden __aeabi_cdrcmple
080036fc g     F .text	0000001c LED_Display
080043a0 g     F .text	000014b4 _svfprintf_r
080096d8 g     F .text	00000022 .hidden __floatsidf
08009bd0 g     F .text	00000082 .hidden __ltdf2
08003c88 g     F .text	00000006 USB_HP_CAN_TX_IRQHandler
08003c20 g     F .text	00000006 EXTI0_IRQHandler
0800372c g     F .text	00000012 LED_All_Off
08003d24 g     F .text	00000006 I2C2_EV_IRQHandler
2000058c g     O .bss	00000004 SysTick_Flag
08009d68 g     F .text	00000000 .hidden __aeabi_uldivmod
080079d4 g     F .text	00000050 __fpclassifyd
08007898 g     F .text	0000005e __ratio
080032b0 g     F .text	00000006 __RBIT
20000000 g       .data	00000000 __RW_BASE__
080069cc g     F .text	00000010 malloc
080091b8 g     F .text	0000025c .hidden __udivsi3
0800a4a8 g     O .rodata	000000c8 __mprec_tens
08003ba0 g     F .text	00000010 UsageFault_Handler
0800328c g     F .text	00000006 __set_FAULTMASK
08006984 g     F .text	0000000a __locale_charset
08009d28 g     F .text	00000040 .hidden __fixunsdfsi
08003c80 g     F .text	00000006 ADC1_2_IRQHandler
200005a8 g     O .bss	00000004 __malloc_top_pad
080037fc g     F .text	000000b8 device_init
20000118 g     O .data	00000004 __mb_cur_max
080096b8 g     F .text	0000001e .hidden __aeabi_ui2d
080069a8 g     F .text	00000008 _localeconv_r
080072f8 g     F .text	00000012 __i2b
08003d34 g     F .text	00000006 SPI1_IRQHandler
08003ca0 g     F .text	00000006 CAN_SCE_IRQHandler
08009434 g     F .text	00000000 .hidden __aeabi_drsub
08007a24 g     F .text	00000026 _sbrk_r
08003c00 g     F .text	00000006 TAMPER_IRQHandler
080036cc g     F .text	0000002e LED_Init
08004118 g     F .text	00000022 TIM3_Out_Stop
08009c88 g     F .text	00000012 .hidden __aeabi_dcmplt
080031ec g     F .text	00000058 Clock_Init
200005d4 g     O .bss	00000004 __malloc_max_sbrked_mem
080096fc g     F .text	0000003a .hidden __extendsfdf2
080099f8 g     F .text	000001d0 .hidden __aeabi_ddiv
08009440 g     F .text	00000276 .hidden __adddf3
20000584 g       .data	00000000 __RW_LIMIT__
08004278 g     F .text	00000060 Uart1_Printf
08007730 g     F .text	000000ac __b2d
080097a4 g     F .text	00000254 .hidden __aeabi_dmul
08003294 g     F .text	00000006 __get_CONTROL
0800a470 g     O .rodata	00000004 _global_impure_ptr
08008cd8 g     F .text	000003ea _realloc_r
0800a148 g     F .text	00000300 .hidden __udivdi3
08003c60 g     F .text	00000006 DMA1_Channel4_IRQHandler
0800a598 g     O .rodata	00000028 __mprec_bigtens
080071cc g     F .text	00000098 __s2b
080096b8 g     F .text	0000001e .hidden __floatunsidf
08003994 g     F .text	00000044 _sbrk
080075bc g     F .text	00000042 __mcmp
080042d8 g     F .text	00000016 Uart1_Get_Pressed
080032e8 g     F .text	000000f8 I2C_Init
08004308 g     F .text	00000042 Uart1_RX_Interrupt_Enable
08003d7c g     F .text	00000006 USART3_IRQHandler
08003c08 g     F .text	00000006 RTC_IRQHandler
08003244 g     F .text	00000008 __get_PSP
08003628 g     F .text	000000a4 Key_ISR_Enable
0800324c g     F .text	00000006 __set_PSP
08003c78 g     F .text	00000006 DMA1_Channel7_IRQHandler
080090e0 g     F .text	000000d6 _reclaim_reent
08007264 g     F .text	0000003c __hi0bits
08009cd8 g     F .text	0000004e .hidden __fixdfsi
0800405c g     F .text	00000018 TIM4_Change_Value
08003ea8 g     F .text	00000026 TIM2_Stopwatch_Stop
08003d0c g     F .text	00000006 TIM4_IRQHandler
08009440 g     F .text	00000276 .hidden __aeabi_dadd
08009bd0 g     F .text	00000082 .hidden __ledf2
08003c98 g     F .text	00000006 CAN_RX1_IRQHandler
0800744c g     F .text	000000b8 __pow5mult
08009738 g     F .text	0000006a .hidden __aeabi_ul2d
200005a4 g     O .bss	00000004 __nlocale_changed
00000000  w      *UND*	00000000 __sf_fake_stderr
080031b8 g     F .text	00000000 _HardFault_Handler
08003d14 g     F .text	00000006 I2C1_EV_IRQHandler
080030ec g     F .text	00000000 __start
080032b8 g     F .text	00000008 __LDREXB
0800346c g     F .text	00000082 I2C_Config_GPIO
08009cc4 g     F .text	00000012 .hidden __aeabi_dcmpgt
08003c70 g     F .text	00000006 DMA1_Channel6_IRQHandler
08006f5c g     F .text	00000090 memchr
080089d0 g     F .text	00000198 _free_r
08003d04 g     F .text	00000006 TIM3_IRQHandler
08003c18 g     F .text	00000006 RCC_IRQHandler
08006990 g     F .text	0000000c __locale_mb_cur_max
08009cb0 g     F .text	00000012 .hidden __aeabi_dcmpge
08003cec g     F .text	00000006 TIM1_TRG_COM_IRQHandler
08003c48 g     F .text	00000006 DMA1_Channel1_IRQHandler
08003274 g     F .text	00000006 __get_PRIMASK
200005a0 g     O .bss	00000004 __mlocale_changed
0800943c g     F .text	0000027a .hidden __aeabi_dsub
08004018 g     F .text	00000020 TIM4_Check_Timeout
2000057c g     O .data	00000004 __malloc_sbrk_base
00000584 g       *ABS*	00000000 __RW_SIZE__
08009738 g     F .text	0000006a .hidden __floatundidf
08007504 g     F .text	000000b6 __lshift
08007ce8 g     F .text	00000104 __ssprint_r
08003d84 g     F .text	00000006 EXTI15_10_IRQHandler
0800a960 g       *ABS*	00000000 __RW_LOAD_ADDR__
08003da0 g     F .text	00000048 SysTick_Run
080032ac g     F .text	00000004 __REVSH
0800730c g     F .text	00000140 __multiply
200005ac g     O .bss	00000028 __malloc_current_mallinfo
080077dc g     F .text	000000ba __d2b
080035c8 g     F .text	0000002e Key_Wait_Key_Released
080096d8 g     F .text	00000022 .hidden __aeabi_i2d
0800a450 g       .rodata	00000000 __RO_BASE__
08009430  w    F .text	00000002 .hidden __aeabi_ldiv0
08003ca8 g     F .text	00000032 EXTI9_5_IRQHandler
080099f8 g     F .text	000001d0 .hidden __divdf3
0800792c g     F .text	00000046 __copybits
20000174 g     O .data	00000408 __malloc_av_
080097a4 g     F .text	00000254 .hidden __muldf3
08007094 g     F .text	00000002 __malloc_lock
080038b4 g     F .text	0000007a device_execute
080088c8 g     F .text	00000062 _calloc_r
08003ed0 g     F .text	000000e4 TIM2_Delay
08003d3c g     F .text	00000006 SPI2_IRQHandler
08003950 g     F .text	00000010 Motor_Reserve
00000000  w      *UND*	00000000 __sf_fake_stdin
08003c90 g     F .text	00000006 USB_LP_CAN_RX0_IRQHandler
08008c38 g     F .text	0000009e memset
08003b80 g     F .text	00000010 MemManage_Handler
200005d8 g     O .bss	00000004 __malloc_max_total_mem
200005dc g       .bss	00000000 __ZI_LIMIT__
08003940 g     F .text	00000010 Motor_Forward
080091b8 g     F .text	00000000 .hidden __aeabi_uidiv
08003bb0 g     F .text	00000010 SVC_Handler
08003e20 g     F .text	00000048 SysTick_OS_Tick
0800329c g     F .text	00000006 __set_CONTROL
080059a4 g     F .text	00000f8a _dtoa_r
080069ec g     F .text	0000056e _malloc_r
08009748 g     F .text	0000005a .hidden __aeabi_l2d
08004234 g     F .text	00000042 Uart1_Send_String
080041f8 g     F .text	0000003a Uart1_Send_Byte
0800359c g     F .text	0000002a Key_Get_Pressed
08004074 g     F .text	0000004c TIM3_Out_Init
08003718 g     F .text	00000012 LED_All_On
08003c68 g     F .text	00000006 DMA1_Channel5_IRQHandler
08003c40 g     F .text	00000006 EXTI4_IRQHandler
0800892c g     F .text	000000a2 _malloc_trim_r
08007a4c g     F .text	00000000 strcmp
08003254 g     F .text	00000008 __get_MSP
0800a960 g       .rodata	00000000 __RO_LIMIT__
08009bd8 g     F .text	0000007a .hidden __nedf2
20000590 g     O .bss	00000004 Key_Value
2000059c g     O .bss	00000004 _PathLocale
08004350 g     F .text	00000032 _vsprintf_r
08003c58 g     F .text	00000006 DMA1_Channel3_IRQHandler
080069b0 g     F .text	00000012 setlocale
080032a8 g     F .text	00000004 __REV16
20000004 g     O .data	00000004 _impure_ptr
08003ce4 g     F .text	00000006 TIM1_UP_IRQHandler
080033e0 g     F .text	0000008a I2C_Write_Reg
080069a4 g     F .text	00000004 __locale_cjk_lang
08007dec g     F .text	00000adc _svfiprintf_r
0000005c g       *ABS*	00000000 __ZI_SIZE__
08003bf0 g     F .text	00000006 WWDG_IRQHandler
0800325c g     F .text	00000006 __set_MSP
080076ec g     F .text	00000042 __ulp
08003e10 g     F .text	0000000e SysTick_Stop
08003cfc g     F .text	00000006 TIM2_IRQHandler
08009d28 g     F .text	00000040 .hidden __aeabi_d2uiz
20000584 g       .bss	00000000 __ZI_BASE__
080069c4 g     F .text	00000008 localeconv
08003cdc g     F .text	00000006 TIM1_BRK_IRQHandler
08009414 g     F .text	0000001a .hidden __aeabi_uidivmod
08003c28 g     F .text	00000006 EXTI1_IRQHandler
0800326c g     F .text	00000006 __set_BASEPRI
08009c74 g     F .text	00000012 .hidden __aeabi_dcmpeq
08004038 g     F .text	00000022 TIM4_Stop
080035f8 g     F .text	0000002e Key_Wait_Key_Pressed
08004140 g     F .text	000000b8 Uart1_Init
08003d8c g     F .text	00000006 RTCAlarm_IRQHandler
08003d74 g     F .text	00000006 USART2_IRQHandler
20000580 g     O .data	00000004 __malloc_trim_threshold
0800699c g     F .text	00000008 __locale_msgcharset
080032d8 g     F .text	00000008 __STREXH
08007600 g     F .text	000000ea __mdiff
08009cd8 g     F .text	0000004e .hidden __aeabi_d2iz
080032c0 g     F .text	00000008 __LDREXH
08003d2c g     F .text	00000006 I2C2_ER_IRQHandler
08003c50 g     F .text	00000006 DMA1_Channel2_IRQHandler
00000000  w      *UND*	00000000 __sf_fake_stdout
20000584 g     O .bss	00000001 received_command
20000598 g     O .bss	00000004 Uart1_Rx_In
08009430  w    F .text	00000002 .hidden __aeabi_idiv0
08003c10 g     F .text	00000006 FLASH_IRQHandler
08003b90 g     F .text	00000010 BusFault_Handler
08003d44 g     F .text	00000030 USART1_IRQHandler
08003df8 g     F .text	0000000c SysTick_Get_Time
08007c88 g     F .text	0000005e strlen
08003264 g     F .text	00000006 __get_BASEPRI
08009c64 g     F .text	00000010 .hidden __aeabi_cdcmpeq
08009bc8 g     F .text	0000008a .hidden __gedf2
080042f0 g     F .text	00000018 Uart1_Get_Char
08003fb4 g     F .text	00000062 TIM4_Repeat
08009d94 g     F .text	00000030 .hidden __gnu_ldivmod_helper
08003d1c g     F .text	00000006 I2C1_ER_IRQHandler
080040c0 g     F .text	00000058 TIM3_Out_Freq_Generation
080096fc g     F .text	0000003a .hidden __aeabi_f2d
080032d0 g     F .text	00000008 __STREXB
0800943c g     F .text	0000027a .hidden __subdf3
08003126 g     F .text	00000000 _Print_Reg
080072a0 g     F .text	00000056 __lo0bits
08003a10 g     F .text	00000032 Invalid_ISR
08003de8 g     F .text	00000010 SysTick_Check_Timeout
08003d94 g     F .text	00000006 USBWakeUp_IRQHandler
080069dc g     F .text	00000010 free
08007140 g     F .text	0000008c __multadd
08007108 g     F .text	00000036 _Bfree



Disassembly of section .text:

08003000 <__start-0xec>:
 8003000:	20005000 	andcs	r5, r0, r0
 8003004:	080030ed 	stmdaeq	r0, {r0, r2, r3, r5, r6, r7, ip, sp}
 8003008:	00000000 	andeq	r0, r0, r0
 800300c:	080031b9 	stmdaeq	r0, {r0, r3, r4, r5, r7, r8, ip, sp}
	...
 800303c:	08003be1 	stmdaeq	r0, {r0, r5, r6, r7, r8, r9, fp, ip, sp}
 8003040:	08003bf1 	stmdaeq	r0, {r0, r4, r5, r6, r7, r8, r9, fp, ip, sp}
 8003044:	08003bf9 	stmdaeq	r0, {r0, r3, r4, r5, r6, r7, r8, r9, fp, ip, sp}
 8003048:	08003c01 	stmdaeq	r0, {r0, sl, fp, ip, sp}
 800304c:	08003c09 	stmdaeq	r0, {r0, r3, sl, fp, ip, sp}
 8003050:	08003c11 	stmdaeq	r0, {r0, r4, sl, fp, ip, sp}
 8003054:	08003c19 	stmdaeq	r0, {r0, r3, r4, sl, fp, ip, sp}
 8003058:	08003c21 	stmdaeq	r0, {r0, r5, sl, fp, ip, sp}
 800305c:	08003c29 	stmdaeq	r0, {r0, r3, r5, sl, fp, ip, sp}
 8003060:	08003c31 	stmdaeq	r0, {r0, r4, r5, sl, fp, ip, sp}
 8003064:	08003c39 	stmdaeq	r0, {r0, r3, r4, r5, sl, fp, ip, sp}
 8003068:	08003c41 	stmdaeq	r0, {r0, r6, sl, fp, ip, sp}
 800306c:	08003c49 	stmdaeq	r0, {r0, r3, r6, sl, fp, ip, sp}
 8003070:	08003c51 	stmdaeq	r0, {r0, r4, r6, sl, fp, ip, sp}
 8003074:	08003c59 	stmdaeq	r0, {r0, r3, r4, r6, sl, fp, ip, sp}
 8003078:	08003c61 	stmdaeq	r0, {r0, r5, r6, sl, fp, ip, sp}
 800307c:	08003c69 	stmdaeq	r0, {r0, r3, r5, r6, sl, fp, ip, sp}
 8003080:	08003c71 	stmdaeq	r0, {r0, r4, r5, r6, sl, fp, ip, sp}
 8003084:	08003c79 	stmdaeq	r0, {r0, r3, r4, r5, r6, sl, fp, ip, sp}
 8003088:	08003c81 	stmdaeq	r0, {r0, r7, sl, fp, ip, sp}
	...
 800309c:	08003ca9 	stmdaeq	r0, {r0, r3, r5, r7, sl, fp, ip, sp}
 80030a0:	08003cdd 	stmdaeq	r0, {r0, r2, r3, r4, r6, r7, sl, fp, ip, sp}
 80030a4:	08003ce5 	stmdaeq	r0, {r0, r2, r5, r6, r7, sl, fp, ip, sp}
 80030a8:	08003ced 	stmdaeq	r0, {r0, r2, r3, r5, r6, r7, sl, fp, ip, sp}
 80030ac:	08003cf5 	stmdaeq	r0, {r0, r2, r4, r5, r6, r7, sl, fp, ip, sp}
 80030b0:	08003cfd 	stmdaeq	r0, {r0, r2, r3, r4, r5, r6, r7, sl, fp, ip, sp}
 80030b4:	08003d05 	stmdaeq	r0, {r0, r2, r8, sl, fp, ip, sp}
 80030b8:	08003d0d 	stmdaeq	r0, {r0, r2, r3, r8, sl, fp, ip, sp}
 80030bc:	08003d15 	stmdaeq	r0, {r0, r2, r4, r8, sl, fp, ip, sp}
 80030c0:	08003d1d 	stmdaeq	r0, {r0, r2, r3, r4, r8, sl, fp, ip, sp}
 80030c4:	08003d25 	stmdaeq	r0, {r0, r2, r5, r8, sl, fp, ip, sp}
 80030c8:	08003d2d 	stmdaeq	r0, {r0, r2, r3, r5, r8, sl, fp, ip, sp}
 80030cc:	08003d35 	stmdaeq	r0, {r0, r2, r4, r5, r8, sl, fp, ip, sp}
 80030d0:	08003d3d 	stmdaeq	r0, {r0, r2, r3, r4, r5, r8, sl, fp, ip, sp}
 80030d4:	08003d45 	stmdaeq	r0, {r0, r2, r6, r8, sl, fp, ip, sp}
 80030d8:	08003d75 	stmdaeq	r0, {r0, r2, r4, r5, r6, r8, sl, fp, ip, sp}
 80030dc:	08003d7d 	stmdaeq	r0, {r0, r2, r3, r4, r5, r6, r8, sl, fp, ip, sp}
 80030e0:	08003d85 	stmdaeq	r0, {r0, r2, r7, r8, sl, fp, ip, sp}
 80030e4:	08003d8d 	stmdaeq	r0, {r0, r2, r3, r7, r8, sl, fp, ip, sp}
 80030e8:	08003d95 	stmdaeq	r0, {r0, r2, r4, r7, r8, sl, fp, ip, sp}

080030ec <__start>:
	.extern __RO_LIMIT__
	.extern __RW_BASE__
	.extern __ZI_BASE__
	.extern __ZI_LIMIT__

	ldr		r0, =__RO_LIMIT__
 80030ec:	4837      	ldr	r0, [pc, #220]	; (80031cc <_HardFault_Handler+0x14>)
	ldr		r1, =__RW_BASE__
 80030ee:	4938      	ldr	r1, [pc, #224]	; (80031d0 <_HardFault_Handler+0x18>)
	ldr		r3, =__ZI_BASE__
 80030f0:	4b38      	ldr	r3, [pc, #224]	; (80031d4 <_HardFault_Handler+0x1c>)

	cmp		r0, r1
 80030f2:	4288      	cmp	r0, r1
	beq		2f
 80030f4:	d006      	beq.n	8003104 <__start+0x18>

1:
	cmp		r1, r3
 80030f6:	4299      	cmp	r1, r3
	ittt	lo
 80030f8:	bf3e      	ittt	cc
	ldrlo	r2, [r0], #4
 80030fa:	f850 2b04 	ldrcc.w	r2, [r0], #4
	strlo	r2, [r1], #4
 80030fe:	f841 2b04 	strcc.w	r2, [r1], #4
	blo		1b
 8003102:	e7f8      	bcc.n	80030f6 <__start+0xa>

2:
	ldr		r1, =__ZI_LIMIT__
 8003104:	4934      	ldr	r1, [pc, #208]	; (80031d8 <_HardFault_Handler+0x20>)
	mov		r2, #0x0
 8003106:	f04f 0200 	mov.w	r2, #0
3:
	cmp		r3, r1
 800310a:	428b      	cmp	r3, r1
	itt		lo
 800310c:	bf3c      	itt	cc
	strlo	r2, [r3], #4
 800310e:	f843 2b04 	strcc.w	r2, [r3], #4
	blo		3b
 8003112:	e7fa      	bcc.n	800310a <__start+0x1e>
	.equ PSP_BASE,	(MSP_LIMIT)
	.equ MSP_BASE,	(RAM_END + 1)
	.equ MSP_SIZE,	(1*1024)
	.equ MSP_LIMIT,	(MSP_BASE - MSP_SIZE)

	ldr		r0, =PSP_BASE
 8003114:	4831      	ldr	r0, [pc, #196]	; (80031dc <_HardFault_Handler+0x24>)
	msr		psp, r0
 8003116:	f380 8809 	msr	PSP, r0
	ldr		r0, =(0x1<<1)|(0x0<<0)
 800311a:	4831      	ldr	r0, [pc, #196]	; (80031e0 <_HardFault_Handler+0x28>)
	msr		control, r0
 800311c:	f380 8814 	msr	CONTROL, r0

	bl		Main
 8003120:	f000 fb0e 	bl	8003740 <Main>

	b		.
 8003124:	e7fe      	b.n	8003124 <__start+0x38>

08003126 <_Print_Reg>:
    .extern	Uart1_Printf

    .global _Print_Reg
  	.type 	_Print_Reg, %function
_Print_Reg:
    PUSH	{r0-r12,lr}
 8003126:	e92d 5fff 	stmdb	sp!, {r0, r1, r2, r3, r4, r5, r6, r7, r8, r9, sl, fp, ip, lr}
    MRS     r1, PSR
 800312a:	f3ef 8103 	mrs	r1, PSR
    PUSH    {r0, r1}
 800312e:	b403      	push	{r0, r1}

    MOV     r6, #14
 8003130:	f04f 060e 	mov.w	r6, #14
    MOV     r4, #4
 8003134:	f04f 0404 	mov.w	r4, #4
    LDR     r5, =_PSR
 8003138:	4d2a      	ldr	r5, [pc, #168]	; (80031e4 <_HardFault_Handler+0x2c>)

0800313a <_loop>:
_loop:
    LDR     r0, =fmt
 800313a:	482b      	ldr	r0, [pc, #172]	; (80031e8 <_HardFault_Handler+0x30>)
    MOV     r1, r5
 800313c:	4629      	mov	r1, r5
    LDR     r2, [sp, r4]
 800313e:	f85d 2004 	ldr.w	r2, [sp, r4]
    BL      Uart1_Printf
 8003142:	f001 f899 	bl	8004278 <Uart1_Printf>

    ADD     r4, r4, #4
 8003146:	f104 0404 	add.w	r4, r4, #4
    ADD     r5, r5, #4
 800314a:	f105 0504 	add.w	r5, r5, #4
    SUBS    r6, r6, #1
 800314e:	3e01      	subs	r6, #1
    BGT     _loop
 8003150:	dcf3      	bgt.n	800313a <_loop>

    LDR     r0, =fmt
 8003152:	4825      	ldr	r0, [pc, #148]	; (80031e8 <_HardFault_Handler+0x30>)
    MOV     r1, r5
 8003154:	4629      	mov	r1, r5
    MRS     r2, psp
 8003156:	f3ef 8209 	mrs	r2, PSP
    BL      Uart1_Printf
 800315a:	f001 f88d 	bl	8004278 <Uart1_Printf>

    POP     {r0, r1}
 800315e:	bc03      	pop	{r0, r1}
	MSR     APSR_nzcvq, r1
 8003160:	f381 8800 	msr	CPSR_f, r1
	MSR     IEPSR, r1
 8003164:	f381 8807 	msr	IEPSR, r1
    POP		{r0-r12, pc}
 8003168:	e8bd 9fff 	ldmia.w	sp!, {r0, r1, r2, r3, r4, r5, r6, r7, r8, r9, sl, fp, ip, pc}

0800316c <fmt>:
 800316c:	3a207325 	bcc	881fe08 <__RW_LOAD_ADDR__+0x8154a8>
 8003170:	25783020 	ldrbcs	r3, [r8, #-32]!	; 0xffffffe0
 8003174:	0a58382e 	beq	9611234 <__RW_LOAD_ADDR__+0x16068d4>
	...

08003179 <_PSR>:
 8003179:	00525350 	subseq	r5, r2, r0, asr r3

0800317d <_r0>:
 800317d:	00303052 	eorseq	r3, r0, r2, asr r0

08003181 <_r1>:
 8003181:	00313052 	eorseq	r3, r1, r2, asr r0

08003185 <_r2>:
 8003185:	00323052 	eorseq	r3, r2, r2, asr r0

08003189 <_r3>:
 8003189:	00333052 	eorseq	r3, r3, r2, asr r0

0800318d <_r4>:
 800318d:	00343052 	eorseq	r3, r4, r2, asr r0

08003191 <_r5>:
 8003191:	00353052 	eorseq	r3, r5, r2, asr r0

08003195 <_r6>:
 8003195:	00363052 	eorseq	r3, r6, r2, asr r0

08003199 <_r7>:
 8003199:	00373052 	eorseq	r3, r7, r2, asr r0

0800319d <_r8>:
 800319d:	00383052 	eorseq	r3, r8, r2, asr r0

080031a1 <_r9>:
 80031a1:	00393052 	eorseq	r3, r9, r2, asr r0

080031a5 <_r10>:
 80031a5:	00303152 	eorseq	r3, r0, r2, asr r1

080031a9 <_r11>:
 80031a9:	00313152 	eorseq	r3, r1, r2, asr r1

080031ad <_r12>:
 80031ad:	00323152 	eorseq	r3, r2, r2, asr r1

080031b1 <_PSP>:
 80031b1:	00505350 	subseq	r5, r0, r0, asr r3
 80031b5:	01bf0000 			; <UNDEFINED> instruction: 0x01bf0000

080031b8 <_HardFault_Handler>:

    .global _HardFault_Handler
  	.type 	_HardFault_Handler, %function
_HardFault_Handler:

	PUSH	{r0, lr}
 80031b8:	b501      	push	{r0, lr}
	BL    	_Print_Reg
 80031ba:	f7ff ffb4 	bl	8003126 <_Print_Reg>
	ADD   	r0, sp, #8
 80031be:	a802      	add	r0, sp, #8
	LDR   	r1, [sp, #4]
 80031c0:	9901      	ldr	r1, [sp, #4]
	MRS   	r2, psp
 80031c2:	f3ef 8209 	mrs	r2, PSP
	BL    	HardFault_Handler
 80031c6:	f000 fc45 	bl	8003a54 <HardFault_Handler>
	POP	 	{r0, pc}
 80031ca:	bd01      	pop	{r0, pc}
	.extern __RO_LIMIT__
	.extern __RW_BASE__
	.extern __ZI_BASE__
	.extern __ZI_LIMIT__

	ldr		r0, =__RO_LIMIT__
 80031cc:	0800a960 	stmdaeq	r0, {r5, r6, r8, fp, sp, pc}
	ldr		r1, =__RW_BASE__
 80031d0:	20000000 	andcs	r0, r0, r0
	ldr		r3, =__ZI_BASE__
 80031d4:	20000584 	andcs	r0, r0, r4, lsl #11
	ldrlo	r2, [r0], #4
	strlo	r2, [r1], #4
	blo		1b

2:
	ldr		r1, =__ZI_LIMIT__
 80031d8:	200005dc 	ldrdcs	r0, [r0], -ip
	.equ PSP_BASE,	(MSP_LIMIT)
	.equ MSP_BASE,	(RAM_END + 1)
	.equ MSP_SIZE,	(1*1024)
	.equ MSP_LIMIT,	(MSP_BASE - MSP_SIZE)

	ldr		r0, =PSP_BASE
 80031dc:	20004c00 	andcs	r4, r0, r0, lsl #24
	msr		psp, r0
	ldr		r0, =(0x1<<1)|(0x0<<0)
 80031e0:	00000002 	andeq	r0, r0, r2
    MRS     r1, PSR
    PUSH    {r0, r1}

    MOV     r6, #14
    MOV     r4, #4
    LDR     r5, =_PSR
 80031e4:	08003179 	stmdaeq	r0, {r0, r3, r4, r5, r6, r8, ip, sp}
_loop:
    LDR     r0, =fmt
 80031e8:	0800316c 	stmdaeq	r0, {r2, r3, r5, r6, r8, ip, sp}

080031ec <Clock_Init>:
#include "device_driver.h"

void Clock_Init(void)
{
	RCC->CR = 0x1;
 80031ec:	f44f 5380 	mov.w	r3, #4096	; 0x1000
 80031f0:	f2c4 0302 	movt	r3, #16386	; 0x4002
 80031f4:	2201      	movs	r2, #1
 80031f6:	601a      	str	r2, [r3, #0]
	Macro_Set_Bit(RCC->CR, 16);
 80031f8:	6819      	ldr	r1, [r3, #0]
	RCC->CFGR = ((9-2)<<18)|(0<<17)|(1<<16)|(0<<11)|(4<<8)|(0<<4)|(0<<0);
 80031fa:	f44f 6280 	mov.w	r2, #1024	; 0x400
#include "device_driver.h"

void Clock_Init(void)
{
	RCC->CR = 0x1;
	Macro_Set_Bit(RCC->CR, 16);
 80031fe:	f441 3180 	orr.w	r1, r1, #65536	; 0x10000
	RCC->CFGR = ((9-2)<<18)|(0<<17)|(1<<16)|(0<<11)|(4<<8)|(0<<4)|(0<<0);
 8003202:	f2c0 021d 	movt	r2, #29
#include "device_driver.h"

void Clock_Init(void)
{
	RCC->CR = 0x1;
	Macro_Set_Bit(RCC->CR, 16);
 8003206:	6019      	str	r1, [r3, #0]
	RCC->CFGR = ((9-2)<<18)|(0<<17)|(1<<16)|(0<<11)|(4<<8)|(0<<4)|(0<<0);
 8003208:	605a      	str	r2, [r3, #4]
	Macro_Set_Bit(RCC->CR, 24);
 800320a:	681a      	ldr	r2, [r3, #0]
	while(!Macro_Check_Bit_Set(RCC->CR, 25));
 800320c:	4619      	mov	r1, r3
void Clock_Init(void)
{
	RCC->CR = 0x1;
	Macro_Set_Bit(RCC->CR, 16);
	RCC->CFGR = ((9-2)<<18)|(0<<17)|(1<<16)|(0<<11)|(4<<8)|(0<<4)|(0<<0);
	Macro_Set_Bit(RCC->CR, 24);
 800320e:	f042 7280 	orr.w	r2, r2, #16777216	; 0x1000000
 8003212:	601a      	str	r2, [r3, #0]
	while(!Macro_Check_Bit_Set(RCC->CR, 25));
 8003214:	680a      	ldr	r2, [r1, #0]
 8003216:	f44f 5380 	mov.w	r3, #4096	; 0x1000
 800321a:	0192      	lsls	r2, r2, #6
 800321c:	f2c4 0302 	movt	r3, #16386	; 0x4002
 8003220:	d5f8      	bpl.n	8003214 <Clock_Init+0x28>
    Macro_Write_Block(FLASH->ACR, 0x3, 0x2, 0);
 8003222:	f44f 5200 	mov.w	r2, #8192	; 0x2000
 8003226:	f2c4 0202 	movt	r2, #16386	; 0x4002
 800322a:	6811      	ldr	r1, [r2, #0]
 800322c:	f021 0103 	bic.w	r1, r1, #3
 8003230:	f041 0102 	orr.w	r1, r1, #2
 8003234:	6011      	str	r1, [r2, #0]
	Macro_Write_Block(RCC->CFGR, 0x3, 0x2, 0);
 8003236:	685a      	ldr	r2, [r3, #4]
 8003238:	f022 0203 	bic.w	r2, r2, #3
 800323c:	f042 0202 	orr.w	r2, r2, #2
 8003240:	605a      	str	r2, [r3, #4]
 8003242:	4770      	bx	lr

08003244 <__get_PSP>:
uint32_t __get_PSP(void) __attribute__( ( naked ) );
uint32_t __get_PSP(void)
{
  uint32_t result=0;

  __ASM volatile ("MRS %0, psp\n\t" 
 8003244:	f3ef 8009 	mrs	r0, PSP
 8003248:	4600      	mov	r0, r0
 800324a:	4770      	bx	lr

0800324c <__set_PSP>:
 * (process stack pointer) Cortex processor register
 */
void __set_PSP(uint32_t topOfProcStack) __attribute__( ( naked ) );
void __set_PSP(uint32_t topOfProcStack)
{
  __ASM volatile ("MSR psp, %0\n\t"
 800324c:	f380 8809 	msr	PSP, r0
 8003250:	4770      	bx	lr
 8003252:	bf00      	nop

08003254 <__get_MSP>:
uint32_t __get_MSP(void) __attribute__( ( naked ) );
uint32_t __get_MSP(void)
{
  uint32_t result=0;

  __ASM volatile ("MRS %0, msp\n\t" 
 8003254:	f3ef 8008 	mrs	r0, MSP
 8003258:	4600      	mov	r0, r0
 800325a:	4770      	bx	lr

0800325c <__set_MSP>:
 * (main stack pointer) Cortex processor register
 */
void __set_MSP(uint32_t topOfMainStack) __attribute__( ( naked ) );
void __set_MSP(uint32_t topOfMainStack)
{
  __ASM volatile ("MSR msp, %0\n\t"
 800325c:	f380 8808 	msr	MSP, r0
 8003260:	4770      	bx	lr
 8003262:	bf00      	nop

08003264 <__get_BASEPRI>:
 */
uint32_t __get_BASEPRI(void)
{
  uint32_t result=0;
  
  __ASM volatile ("MRS %0, basepri_max" : "=r" (result) );
 8003264:	f3ef 8012 	mrs	r0, BASEPRI_MAX
  return(result);
}
 8003268:	4770      	bx	lr
 800326a:	bf00      	nop

0800326c <__set_BASEPRI>:
 *
 * Set the base priority register
 */
void __set_BASEPRI(uint32_t value)
{
  __ASM volatile ("MSR basepri, %0" : : "r" (value) );
 800326c:	f380 8811 	msr	BASEPRI, r0
 8003270:	4770      	bx	lr
 8003272:	bf00      	nop

08003274 <__get_PRIMASK>:
 */
uint32_t __get_PRIMASK(void)
{
  uint32_t result=0;

  __ASM volatile ("MRS %0, primask" : "=r" (result) );
 8003274:	f3ef 8010 	mrs	r0, PRIMASK
  return(result);
}
 8003278:	4770      	bx	lr
 800327a:	bf00      	nop

0800327c <__set_PRIMASK>:
 *
 * Set the priority mask bit in the priority mask register
 */
void __set_PRIMASK(uint32_t priMask)
{
  __ASM volatile ("MSR primask, %0" : : "r" (priMask) );
 800327c:	f380 8810 	msr	PRIMASK, r0
 8003280:	4770      	bx	lr
 8003282:	bf00      	nop

08003284 <__get_FAULTMASK>:
 */
uint32_t __get_FAULTMASK(void)
{
  uint32_t result=0;
  
  __ASM volatile ("MRS %0, faultmask" : "=r" (result) );
 8003284:	f3ef 8013 	mrs	r0, FAULTMASK
  return(result);
}
 8003288:	4770      	bx	lr
 800328a:	bf00      	nop

0800328c <__set_FAULTMASK>:
 *
 * Set the fault mask register
 */
void __set_FAULTMASK(uint32_t faultMask)
{
  __ASM volatile ("MSR faultmask, %0" : : "r" (faultMask) );
 800328c:	f380 8813 	msr	FAULTMASK, r0
 8003290:	4770      	bx	lr
 8003292:	bf00      	nop

08003294 <__get_CONTROL>:
 */
uint32_t __get_CONTROL(void)
{
  uint32_t result=0;

  __ASM volatile ("MRS %0, control" : "=r" (result) );
 8003294:	f3ef 8014 	mrs	r0, CONTROL
  return(result);
}
 8003298:	4770      	bx	lr
 800329a:	bf00      	nop

0800329c <__set_CONTROL>:
 *
 * Set the control register
 */
void __set_CONTROL(uint32_t control)
{
  __ASM volatile ("MSR control, %0" : : "r" (control) );
 800329c:	f380 8814 	msr	CONTROL, r0
 80032a0:	4770      	bx	lr
 80032a2:	bf00      	nop

080032a4 <__REV>:
 */
uint32_t __REV(uint32_t value)
{
  uint32_t result=0;
  
  __ASM volatile ("rev %0, %1" : "=r" (result) : "r" (value) );
 80032a4:	ba00      	rev	r0, r0
  return(result);
}
 80032a6:	4770      	bx	lr

080032a8 <__REV16>:
 */
uint32_t __REV16(uint16_t value)
{
  uint32_t result=0;
  
  __ASM volatile ("rev16 %0, %1" : "=r" (result) : "r" (value) );
 80032a8:	ba40      	rev16	r0, r0
  return(result);
}
 80032aa:	4770      	bx	lr

080032ac <__REVSH>:
 */
int32_t __REVSH(int16_t value)
{
  uint32_t result=0;
  
  __ASM volatile ("revsh %0, %1" : "=r" (result) : "r" (value) );
 80032ac:	bac0      	revsh	r0, r0
  return(result);
}
 80032ae:	4770      	bx	lr

080032b0 <__RBIT>:
 */
uint32_t __RBIT(uint32_t value)
{
  uint32_t result=0;
  
   __ASM volatile ("rbit %0, %1" : "=r" (result) : "r" (value) );
 80032b0:	fa90 f0a0 	rbit	r0, r0
   return(result);
}
 80032b4:	4770      	bx	lr
 80032b6:	bf00      	nop

080032b8 <__LDREXB>:
 */
uint8_t __LDREXB(uint8_t *addr)
{
    uint8_t result=0;
  
   __ASM volatile ("ldrexb %0, [%1]" : "=r" (result) : "r" (addr) );
 80032b8:	e8d0 0f4f 	ldrexb	r0, [r0]
   return(result);
}
 80032bc:	b2c0      	uxtb	r0, r0
 80032be:	4770      	bx	lr

080032c0 <__LDREXH>:
 */
uint16_t __LDREXH(uint16_t *addr)
{
    uint16_t result=0;
  
   __ASM volatile ("ldrexh %0, [%1]" : "=r" (result) : "r" (addr) );
 80032c0:	e8d0 0f5f 	ldrexh	r0, [r0]
   return(result);
}
 80032c4:	b280      	uxth	r0, r0
 80032c6:	4770      	bx	lr

080032c8 <__LDREXW>:
 */
uint32_t __LDREXW(uint32_t *addr)
{
    uint32_t result=0;
  
   __ASM volatile ("ldrex %0, [%1]" : "=r" (result) : "r" (addr) );
 80032c8:	e850 0f00 	ldrex	r0, [r0]
   return(result);
}
 80032cc:	4770      	bx	lr
 80032ce:	bf00      	nop

080032d0 <__STREXB>:
 */
uint32_t __STREXB(uint8_t value, uint8_t *addr)
{
   uint32_t result=0;
  
   __ASM volatile ("strexb %0, %2, [%1]" : "=&r" (result) : "r" (addr), "r" (value) );
 80032d0:	e8c1 0f43 	strexb	r3, r0, [r1]
 80032d4:	4618      	mov	r0, r3
   return(result);
}
 80032d6:	4770      	bx	lr

080032d8 <__STREXH>:
 */
uint32_t __STREXH(uint16_t value, uint16_t *addr)
{
   uint32_t result=0;
  
   __ASM volatile ("strexh %0, %2, [%1]" : "=&r" (result) : "r" (addr), "r" (value) );
 80032d8:	e8c1 0f53 	strexh	r3, r0, [r1]
 80032dc:	4618      	mov	r0, r3
   return(result);
}
 80032de:	4770      	bx	lr

080032e0 <__STREXW>:
 */
uint32_t __STREXW(uint32_t value, uint32_t *addr)
{
   uint32_t result=0;
  
   __ASM volatile ("strex %0, %2, [%1]" : "=r" (result) : "r" (addr), "r" (value) );
 80032e0:	e841 0000 	strex	r0, r0, [r1]
   return(result);
}
 80032e4:	4770      	bx	lr
 80032e6:	bf00      	nop

080032e8 <I2C_Init>:
void I2C_Init(unsigned int freq)
{
	unsigned int r;
	volatile int i;

	Macro_Set_Bit(RCC->APB1ENR, 21);
 80032e8:	f44f 5380 	mov.w	r3, #4096	; 0x1000
 80032ec:	f2c4 0302 	movt	r3, #16386	; 0x4002
 80032f0:	69d9      	ldr	r1, [r3, #28]
#define I2CADDR			0x9A
#define I2CADDR_WR		(I2CADDR|0x0)
#define I2CADDR_RD		(I2CADDR|0x1)

void I2C_Init(unsigned int freq)
{
 80032f2:	b082      	sub	sp, #8
	unsigned int r;
	volatile int i;

	Macro_Set_Bit(RCC->APB1ENR, 21);
 80032f4:	f441 1100 	orr.w	r1, r1, #2097152	; 0x200000
 80032f8:	61d9      	str	r1, [r3, #28]

	Macro_Clear_Bit(RCC->APB1RSTR, 21);
 80032fa:	6919      	ldr	r1, [r3, #16]
	for(i=0; i<1000; i++);
 80032fc:	2200      	movs	r2, #0
	unsigned int r;
	volatile int i;

	Macro_Set_Bit(RCC->APB1ENR, 21);

	Macro_Clear_Bit(RCC->APB1RSTR, 21);
 80032fe:	f421 1100 	bic.w	r1, r1, #2097152	; 0x200000
 8003302:	6119      	str	r1, [r3, #16]
	for(i=0; i<1000; i++);
 8003304:	9201      	str	r2, [sp, #4]
 8003306:	9b01      	ldr	r3, [sp, #4]
 8003308:	f5b3 7f7a 	cmp.w	r3, #1000	; 0x3e8
 800330c:	da06      	bge.n	800331c <I2C_Init+0x34>
 800330e:	9b01      	ldr	r3, [sp, #4]
 8003310:	3301      	adds	r3, #1
 8003312:	9301      	str	r3, [sp, #4]
 8003314:	9b01      	ldr	r3, [sp, #4]
 8003316:	f5b3 7f7a 	cmp.w	r3, #1000	; 0x3e8
 800331a:	dbf8      	blt.n	800330e <I2C_Init+0x26>
	Macro_Set_Bit(RCC->APB1RSTR, 21);
 800331c:	f44f 5380 	mov.w	r3, #4096	; 0x1000
 8003320:	f2c4 0302 	movt	r3, #16386	; 0x4002
 8003324:	6919      	ldr	r1, [r3, #16]
	for(i=0; i<1000; i++);
 8003326:	2200      	movs	r2, #0

	Macro_Set_Bit(RCC->APB1ENR, 21);

	Macro_Clear_Bit(RCC->APB1RSTR, 21);
	for(i=0; i<1000; i++);
	Macro_Set_Bit(RCC->APB1RSTR, 21);
 8003328:	f441 1100 	orr.w	r1, r1, #2097152	; 0x200000
 800332c:	6119      	str	r1, [r3, #16]
	for(i=0; i<1000; i++);
 800332e:	9201      	str	r2, [sp, #4]
 8003330:	9b01      	ldr	r3, [sp, #4]
 8003332:	f5b3 7f7a 	cmp.w	r3, #1000	; 0x3e8
 8003336:	da06      	bge.n	8003346 <I2C_Init+0x5e>
 8003338:	9b01      	ldr	r3, [sp, #4]
 800333a:	3301      	adds	r3, #1
 800333c:	9301      	str	r3, [sp, #4]
 800333e:	9b01      	ldr	r3, [sp, #4]
 8003340:	f5b3 7f7a 	cmp.w	r3, #1000	; 0x3e8
 8003344:	dbf8      	blt.n	8003338 <I2C_Init+0x50>
	Macro_Clear_Bit(RCC->APB1RSTR, 21);
 8003346:	f44f 5380 	mov.w	r3, #4096	; 0x1000
 800334a:	f2c4 0302 	movt	r3, #16386	; 0x4002
 800334e:	691a      	ldr	r2, [r3, #16]

	Macro_Set_Bit(RCC->APB2ENR, 3);
	Macro_Clear_Bit(AFIO->MAPR, 1);
 8003350:	2100      	movs	r1, #0

	Macro_Clear_Bit(RCC->APB1RSTR, 21);
	for(i=0; i<1000; i++);
	Macro_Set_Bit(RCC->APB1RSTR, 21);
	for(i=0; i<1000; i++);
	Macro_Clear_Bit(RCC->APB1RSTR, 21);
 8003352:	f422 1200 	bic.w	r2, r2, #2097152	; 0x200000
 8003356:	611a      	str	r2, [r3, #16]

	Macro_Set_Bit(RCC->APB2ENR, 3);
 8003358:	699a      	ldr	r2, [r3, #24]
	Macro_Clear_Bit(AFIO->MAPR, 1);
 800335a:	f2c4 0101 	movt	r1, #16385	; 0x4001
	for(i=0; i<1000; i++);
	Macro_Set_Bit(RCC->APB1RSTR, 21);
	for(i=0; i<1000; i++);
	Macro_Clear_Bit(RCC->APB1RSTR, 21);

	Macro_Set_Bit(RCC->APB2ENR, 3);
 800335e:	f042 0208 	orr.w	r2, r2, #8
 8003362:	619a      	str	r2, [r3, #24]
	Macro_Clear_Bit(AFIO->MAPR, 1);
 8003364:	684b      	ldr	r3, [r1, #4]
	Macro_Write_Block(GPIOB->CRL, 0xff, 0xFF, 24);
 8003366:	f44f 6240 	mov.w	r2, #3072	; 0xc00
	Macro_Set_Bit(RCC->APB1RSTR, 21);
	for(i=0; i<1000; i++);
	Macro_Clear_Bit(RCC->APB1RSTR, 21);

	Macro_Set_Bit(RCC->APB2ENR, 3);
	Macro_Clear_Bit(AFIO->MAPR, 1);
 800336a:	f023 0302 	bic.w	r3, r3, #2
 800336e:	604b      	str	r3, [r1, #4]
	Macro_Write_Block(GPIOB->CRL, 0xff, 0xFF, 24);
 8003370:	f2c4 0201 	movt	r2, #16385	; 0x4001
 8003374:	6811      	ldr	r1, [r2, #0]

	Macro_Write_Block(I2C1->CR2, 0x3f, PCLK1/1000000, 0);
 8003376:	f44f 43a8 	mov.w	r3, #21504	; 0x5400
	for(i=0; i<1000; i++);
	Macro_Clear_Bit(RCC->APB1RSTR, 21);

	Macro_Set_Bit(RCC->APB2ENR, 3);
	Macro_Clear_Bit(AFIO->MAPR, 1);
	Macro_Write_Block(GPIOB->CRL, 0xff, 0xFF, 24);
 800337a:	f041 417f 	orr.w	r1, r1, #4278190080	; 0xff000000
 800337e:	6011      	str	r1, [r2, #0]

	Macro_Write_Block(I2C1->CR2, 0x3f, PCLK1/1000000, 0);
 8003380:	f2c4 0300 	movt	r3, #16384	; 0x4000
 8003384:	889a      	ldrh	r2, [r3, #4]
	Macro_Clear_Bit(I2C1->CR1, 0);
	I2C1->TRISE = PCLK1/1000000+1;
	r = PCLK1/(freq*2);
 8003386:	f44f 41a2 	mov.w	r1, #20736	; 0x5100

	Macro_Set_Bit(RCC->APB2ENR, 3);
	Macro_Clear_Bit(AFIO->MAPR, 1);
	Macro_Write_Block(GPIOB->CRL, 0xff, 0xFF, 24);

	Macro_Write_Block(I2C1->CR2, 0x3f, PCLK1/1000000, 0);
 800338a:	f022 023f 	bic.w	r2, r2, #63	; 0x3f
 800338e:	0412      	lsls	r2, r2, #16
 8003390:	0c12      	lsrs	r2, r2, #16
 8003392:	f042 0224 	orr.w	r2, r2, #36	; 0x24
 8003396:	809a      	strh	r2, [r3, #4]
	Macro_Clear_Bit(I2C1->CR1, 0);
 8003398:	881a      	ldrh	r2, [r3, #0]
	I2C1->TRISE = PCLK1/1000000+1;
	r = PCLK1/(freq*2);
 800339a:	f2c0 2125 	movt	r1, #549	; 0x225
 800339e:	0040      	lsls	r0, r0, #1
 80033a0:	fbb1 f0f0 	udiv	r0, r1, r0
	Macro_Set_Bit(RCC->APB2ENR, 3);
	Macro_Clear_Bit(AFIO->MAPR, 1);
	Macro_Write_Block(GPIOB->CRL, 0xff, 0xFF, 24);

	Macro_Write_Block(I2C1->CR2, 0x3f, PCLK1/1000000, 0);
	Macro_Clear_Bit(I2C1->CR1, 0);
 80033a4:	f022 0201 	bic.w	r2, r2, #1
	I2C1->TRISE = PCLK1/1000000+1;
	r = PCLK1/(freq*2);
	I2C1->CCR = ((r<4)?4:r);
 80033a8:	2804      	cmp	r0, #4
 80033aa:	bf38      	it	cc
 80033ac:	2004      	movcc	r0, #4
	Macro_Set_Bit(RCC->APB2ENR, 3);
	Macro_Clear_Bit(AFIO->MAPR, 1);
	Macro_Write_Block(GPIOB->CRL, 0xff, 0xFF, 24);

	Macro_Write_Block(I2C1->CR2, 0x3f, PCLK1/1000000, 0);
	Macro_Clear_Bit(I2C1->CR1, 0);
 80033ae:	0412      	lsls	r2, r2, #16
	I2C1->TRISE = PCLK1/1000000+1;
	r = PCLK1/(freq*2);
	I2C1->CCR = ((r<4)?4:r);
 80033b0:	b280      	uxth	r0, r0
	Macro_Set_Bit(RCC->APB2ENR, 3);
	Macro_Clear_Bit(AFIO->MAPR, 1);
	Macro_Write_Block(GPIOB->CRL, 0xff, 0xFF, 24);

	Macro_Write_Block(I2C1->CR2, 0x3f, PCLK1/1000000, 0);
	Macro_Clear_Bit(I2C1->CR1, 0);
 80033b2:	0c12      	lsrs	r2, r2, #16
	I2C1->TRISE = PCLK1/1000000+1;
 80033b4:	2125      	movs	r1, #37	; 0x25
	Macro_Set_Bit(RCC->APB2ENR, 3);
	Macro_Clear_Bit(AFIO->MAPR, 1);
	Macro_Write_Block(GPIOB->CRL, 0xff, 0xFF, 24);

	Macro_Write_Block(I2C1->CR2, 0x3f, PCLK1/1000000, 0);
	Macro_Clear_Bit(I2C1->CR1, 0);
 80033b6:	801a      	strh	r2, [r3, #0]
	I2C1->TRISE = PCLK1/1000000+1;
 80033b8:	8419      	strh	r1, [r3, #32]
	r = PCLK1/(freq*2);
	I2C1->CCR = ((r<4)?4:r);
 80033ba:	8398      	strh	r0, [r3, #28]

	Macro_Clear_Bit(I2C1->CR1, 1);
 80033bc:	881a      	ldrh	r2, [r3, #0]
 80033be:	f022 0202 	bic.w	r2, r2, #2
 80033c2:	0412      	lsls	r2, r2, #16
 80033c4:	0c12      	lsrs	r2, r2, #16
 80033c6:	801a      	strh	r2, [r3, #0]
	Macro_Set_Bit(I2C1->CR1, 0);
 80033c8:	881a      	ldrh	r2, [r3, #0]
 80033ca:	b292      	uxth	r2, r2
 80033cc:	f042 0201 	orr.w	r2, r2, #1
 80033d0:	801a      	strh	r2, [r3, #0]
	Macro_Set_Bit(I2C1->CR1, 10);
 80033d2:	881a      	ldrh	r2, [r3, #0]
 80033d4:	b292      	uxth	r2, r2
 80033d6:	f442 6280 	orr.w	r2, r2, #1024	; 0x400
 80033da:	801a      	strh	r2, [r3, #0]
}
 80033dc:	b002      	add	sp, #8
 80033de:	4770      	bx	lr

080033e0 <I2C_Write_Reg>:

void I2C_Write_Reg(unsigned int addr, unsigned int data)
{
 80033e0:	b410      	push	{r4}
	while(Macro_Check_Bit_Set(I2C1->SR2, 1)); 					// Idle OK
 80033e2:	f44f 44a8 	mov.w	r4, #21504	; 0x5400
 80033e6:	f2c4 0400 	movt	r4, #16384	; 0x4000
 80033ea:	8b22      	ldrh	r2, [r4, #24]
 80033ec:	f44f 43a8 	mov.w	r3, #21504	; 0x5400
 80033f0:	0792      	lsls	r2, r2, #30
 80033f2:	f2c4 0300 	movt	r3, #16384	; 0x4000
 80033f6:	d4f8      	bmi.n	80033ea <I2C_Write_Reg+0xa>

	Macro_Set_Bit(I2C1->CR1, 8); 								// Start
 80033f8:	881a      	ldrh	r2, [r3, #0]
	while(Macro_Check_Bit_Clear(I2C1->SR1, 0));					// Check Start
 80033fa:	461c      	mov	r4, r3

void I2C_Write_Reg(unsigned int addr, unsigned int data)
{
	while(Macro_Check_Bit_Set(I2C1->SR2, 1)); 					// Idle OK

	Macro_Set_Bit(I2C1->CR1, 8); 								// Start
 80033fc:	b292      	uxth	r2, r2
 80033fe:	f442 7280 	orr.w	r2, r2, #256	; 0x100
 8003402:	801a      	strh	r2, [r3, #0]
	while(Macro_Check_Bit_Clear(I2C1->SR1, 0));					// Check Start
 8003404:	8aa2      	ldrh	r2, [r4, #20]
 8003406:	f44f 43a8 	mov.w	r3, #21504	; 0x5400
 800340a:	07d2      	lsls	r2, r2, #31
 800340c:	f2c4 0300 	movt	r3, #16384	; 0x4000
 8003410:	d5f8      	bpl.n	8003404 <I2C_Write_Reg+0x24>

	I2C1->DR = I2CADDR_WR;										// Send WR Address
 8003412:	229a      	movs	r2, #154	; 0x9a
 8003414:	821a      	strh	r2, [r3, #16]
	while(Macro_Check_Bit_Clear(I2C1->SR1, 1));					// Check Address
 8003416:	461c      	mov	r4, r3
 8003418:	8aa2      	ldrh	r2, [r4, #20]
 800341a:	f44f 43a8 	mov.w	r3, #21504	; 0x5400
 800341e:	0792      	lsls	r2, r2, #30
 8003420:	f2c4 0300 	movt	r3, #16384	; 0x4000
 8003424:	d5f8      	bpl.n	8003418 <I2C_Write_Reg+0x38>
	(void)I2C1->SR2;											// Clear ADDR flag by reading SR2

	I2C1->DR = addr<<3;											// Send Register Address
 8003426:	00c0      	lsls	r0, r0, #3
 8003428:	b280      	uxth	r0, r0
	Macro_Set_Bit(I2C1->CR1, 8); 								// Start
	while(Macro_Check_Bit_Clear(I2C1->SR1, 0));					// Check Start

	I2C1->DR = I2CADDR_WR;										// Send WR Address
	while(Macro_Check_Bit_Clear(I2C1->SR1, 1));					// Check Address
	(void)I2C1->SR2;											// Clear ADDR flag by reading SR2
 800342a:	8b1a      	ldrh	r2, [r3, #24]

	I2C1->DR = addr<<3;											// Send Register Address
	while(Macro_Check_Bit_Clear(I2C1->SR1, 2));					// Check Byte Transfer Finished
 800342c:	461c      	mov	r4, r3

	I2C1->DR = I2CADDR_WR;										// Send WR Address
	while(Macro_Check_Bit_Clear(I2C1->SR1, 1));					// Check Address
	(void)I2C1->SR2;											// Clear ADDR flag by reading SR2

	I2C1->DR = addr<<3;											// Send Register Address
 800342e:	8218      	strh	r0, [r3, #16]
	while(Macro_Check_Bit_Clear(I2C1->SR1, 2));					// Check Byte Transfer Finished
 8003430:	8aa2      	ldrh	r2, [r4, #20]
 8003432:	f44f 43a8 	mov.w	r3, #21504	; 0x5400
 8003436:	0750      	lsls	r0, r2, #29
 8003438:	f2c4 0300 	movt	r3, #16384	; 0x4000
 800343c:	d5f8      	bpl.n	8003430 <I2C_Write_Reg+0x50>

	I2C1->DR = data;											// Send Data
 800343e:	b289      	uxth	r1, r1
 8003440:	8219      	strh	r1, [r3, #16]
	while(Macro_Check_Bit_Clear(I2C1->SR1, 2));					// Check Byte Transfer Finished
 8003442:	4619      	mov	r1, r3
 8003444:	8a8a      	ldrh	r2, [r1, #20]
 8003446:	f44f 43a8 	mov.w	r3, #21504	; 0x5400
 800344a:	0752      	lsls	r2, r2, #29
 800344c:	f2c4 0300 	movt	r3, #16384	; 0x4000
 8003450:	d5f8      	bpl.n	8003444 <I2C_Write_Reg+0x64>

	Macro_Set_Bit(I2C1->CR1, 9); 								// Stop
 8003452:	8819      	ldrh	r1, [r3, #0]
	while(Macro_Check_Bit_Set(I2C1->CR1, 9));					// Check Stop(Auto Cleared)
 8003454:	461a      	mov	r2, r3
	while(Macro_Check_Bit_Clear(I2C1->SR1, 2));					// Check Byte Transfer Finished

	I2C1->DR = data;											// Send Data
	while(Macro_Check_Bit_Clear(I2C1->SR1, 2));					// Check Byte Transfer Finished

	Macro_Set_Bit(I2C1->CR1, 9); 								// Stop
 8003456:	b289      	uxth	r1, r1
 8003458:	f441 7100 	orr.w	r1, r1, #512	; 0x200
 800345c:	8019      	strh	r1, [r3, #0]
	while(Macro_Check_Bit_Set(I2C1->CR1, 9));					// Check Stop(Auto Cleared)
 800345e:	8813      	ldrh	r3, [r2, #0]
 8003460:	059b      	lsls	r3, r3, #22
 8003462:	d4fc      	bmi.n	800345e <I2C_Write_Reg+0x7e>
}
 8003464:	f85d 4b04 	ldr.w	r4, [sp], #4
 8003468:	4770      	bx	lr
 800346a:	bf00      	nop

0800346c <I2C_Config_GPIO>:
	Macro_Set_Bit(I2C1->CR1, 10);
}

void I2C_Write_Reg(unsigned int addr, unsigned int data)
{
	while(Macro_Check_Bit_Set(I2C1->SR2, 1)); 					// Idle OK
 800346c:	f44f 41a8 	mov.w	r1, #21504	; 0x5400
 8003470:	f2c4 0100 	movt	r1, #16384	; 0x4000
 8003474:	8b0a      	ldrh	r2, [r1, #24]
 8003476:	f44f 43a8 	mov.w	r3, #21504	; 0x5400
 800347a:	0792      	lsls	r2, r2, #30
 800347c:	f2c4 0300 	movt	r3, #16384	; 0x4000
 8003480:	d4f8      	bmi.n	8003474 <I2C_Config_GPIO+0x8>

	Macro_Set_Bit(I2C1->CR1, 8); 								// Start
 8003482:	881a      	ldrh	r2, [r3, #0]
	while(Macro_Check_Bit_Clear(I2C1->SR1, 0));					// Check Start
 8003484:	4619      	mov	r1, r3

void I2C_Write_Reg(unsigned int addr, unsigned int data)
{
	while(Macro_Check_Bit_Set(I2C1->SR2, 1)); 					// Idle OK

	Macro_Set_Bit(I2C1->CR1, 8); 								// Start
 8003486:	b292      	uxth	r2, r2
 8003488:	f442 7280 	orr.w	r2, r2, #256	; 0x100
 800348c:	801a      	strh	r2, [r3, #0]
	while(Macro_Check_Bit_Clear(I2C1->SR1, 0));					// Check Start
 800348e:	8a8a      	ldrh	r2, [r1, #20]
 8003490:	f44f 43a8 	mov.w	r3, #21504	; 0x5400
 8003494:	07d2      	lsls	r2, r2, #31
 8003496:	f2c4 0300 	movt	r3, #16384	; 0x4000
 800349a:	d5f8      	bpl.n	800348e <I2C_Config_GPIO+0x22>

	I2C1->DR = I2CADDR_WR;										// Send WR Address
 800349c:	229a      	movs	r2, #154	; 0x9a
 800349e:	821a      	strh	r2, [r3, #16]
	while(Macro_Check_Bit_Clear(I2C1->SR1, 1));					// Check Address
 80034a0:	4619      	mov	r1, r3
 80034a2:	8a8a      	ldrh	r2, [r1, #20]
 80034a4:	f44f 43a8 	mov.w	r3, #21504	; 0x5400
 80034a8:	0792      	lsls	r2, r2, #30
 80034aa:	f2c4 0300 	movt	r3, #16384	; 0x4000
 80034ae:	d5f8      	bpl.n	80034a2 <I2C_Config_GPIO+0x36>
	(void)I2C1->SR2;											// Clear ADDR flag by reading SR2

	I2C1->DR = addr<<3;											// Send Register Address
 80034b0:	2250      	movs	r2, #80	; 0x50
	Macro_Set_Bit(I2C1->CR1, 8); 								// Start
	while(Macro_Check_Bit_Clear(I2C1->SR1, 0));					// Check Start

	I2C1->DR = I2CADDR_WR;										// Send WR Address
	while(Macro_Check_Bit_Clear(I2C1->SR1, 1));					// Check Address
	(void)I2C1->SR2;											// Clear ADDR flag by reading SR2
 80034b2:	8b19      	ldrh	r1, [r3, #24]

	I2C1->DR = addr<<3;											// Send Register Address
	while(Macro_Check_Bit_Clear(I2C1->SR1, 2));					// Check Byte Transfer Finished
 80034b4:	4619      	mov	r1, r3

	I2C1->DR = I2CADDR_WR;										// Send WR Address
	while(Macro_Check_Bit_Clear(I2C1->SR1, 1));					// Check Address
	(void)I2C1->SR2;											// Clear ADDR flag by reading SR2

	I2C1->DR = addr<<3;											// Send Register Address
 80034b6:	821a      	strh	r2, [r3, #16]
	while(Macro_Check_Bit_Clear(I2C1->SR1, 2));					// Check Byte Transfer Finished
 80034b8:	8a8a      	ldrh	r2, [r1, #20]
 80034ba:	f44f 43a8 	mov.w	r3, #21504	; 0x5400
 80034be:	0752      	lsls	r2, r2, #29
 80034c0:	f2c4 0300 	movt	r3, #16384	; 0x4000
 80034c4:	d5f8      	bpl.n	80034b8 <I2C_Config_GPIO+0x4c>

	I2C1->DR = data;											// Send Data
 80034c6:	b280      	uxth	r0, r0
 80034c8:	8218      	strh	r0, [r3, #16]
	while(Macro_Check_Bit_Clear(I2C1->SR1, 2));					// Check Byte Transfer Finished
 80034ca:	4619      	mov	r1, r3
 80034cc:	8a8a      	ldrh	r2, [r1, #20]
 80034ce:	f44f 43a8 	mov.w	r3, #21504	; 0x5400
 80034d2:	0750      	lsls	r0, r2, #29
 80034d4:	f2c4 0300 	movt	r3, #16384	; 0x4000
 80034d8:	d5f8      	bpl.n	80034cc <I2C_Config_GPIO+0x60>

	Macro_Set_Bit(I2C1->CR1, 9); 								// Stop
 80034da:	8819      	ldrh	r1, [r3, #0]
	while(Macro_Check_Bit_Set(I2C1->CR1, 9));					// Check Stop(Auto Cleared)
 80034dc:	461a      	mov	r2, r3
	while(Macro_Check_Bit_Clear(I2C1->SR1, 2));					// Check Byte Transfer Finished

	I2C1->DR = data;											// Send Data
	while(Macro_Check_Bit_Clear(I2C1->SR1, 2));					// Check Byte Transfer Finished

	Macro_Set_Bit(I2C1->CR1, 9); 								// Stop
 80034de:	b289      	uxth	r1, r1
 80034e0:	f441 7100 	orr.w	r1, r1, #512	; 0x200
 80034e4:	8019      	strh	r1, [r3, #0]
	while(Macro_Check_Bit_Set(I2C1->CR1, 9));					// Check Stop(Auto Cleared)
 80034e6:	8813      	ldrh	r3, [r2, #0]
 80034e8:	0599      	lsls	r1, r3, #22
 80034ea:	d4fc      	bmi.n	80034e6 <I2C_Config_GPIO+0x7a>
}

void I2C_Config_GPIO(unsigned int config)
{
	I2C_Write_Reg(IODIR, config);
}
 80034ec:	4770      	bx	lr
 80034ee:	bf00      	nop

080034f0 <I2C_Write_GPIO>:
	Macro_Set_Bit(I2C1->CR1, 10);
}

void I2C_Write_Reg(unsigned int addr, unsigned int data)
{
	while(Macro_Check_Bit_Set(I2C1->SR2, 1)); 					// Idle OK
 80034f0:	f44f 41a8 	mov.w	r1, #21504	; 0x5400
 80034f4:	f2c4 0100 	movt	r1, #16384	; 0x4000
 80034f8:	8b0a      	ldrh	r2, [r1, #24]
 80034fa:	f44f 43a8 	mov.w	r3, #21504	; 0x5400
 80034fe:	0792      	lsls	r2, r2, #30
 8003500:	f2c4 0300 	movt	r3, #16384	; 0x4000
 8003504:	d4f8      	bmi.n	80034f8 <I2C_Write_GPIO+0x8>

	Macro_Set_Bit(I2C1->CR1, 8); 								// Start
 8003506:	881a      	ldrh	r2, [r3, #0]
	while(Macro_Check_Bit_Clear(I2C1->SR1, 0));					// Check Start
 8003508:	4619      	mov	r1, r3

void I2C_Write_Reg(unsigned int addr, unsigned int data)
{
	while(Macro_Check_Bit_Set(I2C1->SR2, 1)); 					// Idle OK

	Macro_Set_Bit(I2C1->CR1, 8); 								// Start
 800350a:	b292      	uxth	r2, r2
 800350c:	f442 7280 	orr.w	r2, r2, #256	; 0x100
 8003510:	801a      	strh	r2, [r3, #0]
	while(Macro_Check_Bit_Clear(I2C1->SR1, 0));					// Check Start
 8003512:	8a8a      	ldrh	r2, [r1, #20]
 8003514:	f44f 43a8 	mov.w	r3, #21504	; 0x5400
 8003518:	07d2      	lsls	r2, r2, #31
 800351a:	f2c4 0300 	movt	r3, #16384	; 0x4000
 800351e:	d5f8      	bpl.n	8003512 <I2C_Write_GPIO+0x22>

	I2C1->DR = I2CADDR_WR;										// Send WR Address
 8003520:	229a      	movs	r2, #154	; 0x9a
 8003522:	821a      	strh	r2, [r3, #16]
	while(Macro_Check_Bit_Clear(I2C1->SR1, 1));					// Check Address
 8003524:	4619      	mov	r1, r3
 8003526:	8a8a      	ldrh	r2, [r1, #20]
 8003528:	f44f 43a8 	mov.w	r3, #21504	; 0x5400
 800352c:	0792      	lsls	r2, r2, #30
 800352e:	f2c4 0300 	movt	r3, #16384	; 0x4000
 8003532:	d5f8      	bpl.n	8003526 <I2C_Write_GPIO+0x36>
	(void)I2C1->SR2;											// Clear ADDR flag by reading SR2

	I2C1->DR = addr<<3;											// Send Register Address
 8003534:	2258      	movs	r2, #88	; 0x58
	Macro_Set_Bit(I2C1->CR1, 8); 								// Start
	while(Macro_Check_Bit_Clear(I2C1->SR1, 0));					// Check Start

	I2C1->DR = I2CADDR_WR;										// Send WR Address
	while(Macro_Check_Bit_Clear(I2C1->SR1, 1));					// Check Address
	(void)I2C1->SR2;											// Clear ADDR flag by reading SR2
 8003536:	8b19      	ldrh	r1, [r3, #24]

	I2C1->DR = addr<<3;											// Send Register Address
	while(Macro_Check_Bit_Clear(I2C1->SR1, 2));					// Check Byte Transfer Finished
 8003538:	4619      	mov	r1, r3

	I2C1->DR = I2CADDR_WR;										// Send WR Address
	while(Macro_Check_Bit_Clear(I2C1->SR1, 1));					// Check Address
	(void)I2C1->SR2;											// Clear ADDR flag by reading SR2

	I2C1->DR = addr<<3;											// Send Register Address
 800353a:	821a      	strh	r2, [r3, #16]
	while(Macro_Check_Bit_Clear(I2C1->SR1, 2));					// Check Byte Transfer Finished
 800353c:	8a8a      	ldrh	r2, [r1, #20]
 800353e:	f44f 43a8 	mov.w	r3, #21504	; 0x5400
 8003542:	0752      	lsls	r2, r2, #29
 8003544:	f2c4 0300 	movt	r3, #16384	; 0x4000
 8003548:	d5f8      	bpl.n	800353c <I2C_Write_GPIO+0x4c>

	I2C1->DR = data;											// Send Data
 800354a:	b280      	uxth	r0, r0
 800354c:	8218      	strh	r0, [r3, #16]
	while(Macro_Check_Bit_Clear(I2C1->SR1, 2));					// Check Byte Transfer Finished
 800354e:	4619      	mov	r1, r3
 8003550:	8a8a      	ldrh	r2, [r1, #20]
 8003552:	f44f 43a8 	mov.w	r3, #21504	; 0x5400
 8003556:	0750      	lsls	r0, r2, #29
 8003558:	f2c4 0300 	movt	r3, #16384	; 0x4000
 800355c:	d5f8      	bpl.n	8003550 <I2C_Write_GPIO+0x60>

	Macro_Set_Bit(I2C1->CR1, 9); 								// Stop
 800355e:	8819      	ldrh	r1, [r3, #0]
	while(Macro_Check_Bit_Set(I2C1->CR1, 9));					// Check Stop(Auto Cleared)
 8003560:	461a      	mov	r2, r3
	while(Macro_Check_Bit_Clear(I2C1->SR1, 2));					// Check Byte Transfer Finished

	I2C1->DR = data;											// Send Data
	while(Macro_Check_Bit_Clear(I2C1->SR1, 2));					// Check Byte Transfer Finished

	Macro_Set_Bit(I2C1->CR1, 9); 								// Stop
 8003562:	b289      	uxth	r1, r1
 8003564:	f441 7100 	orr.w	r1, r1, #512	; 0x200
 8003568:	8019      	strh	r1, [r3, #0]
	while(Macro_Check_Bit_Set(I2C1->CR1, 9));					// Check Stop(Auto Cleared)
 800356a:	8813      	ldrh	r3, [r2, #0]
 800356c:	0599      	lsls	r1, r3, #22
 800356e:	d4fc      	bmi.n	800356a <I2C_Write_GPIO+0x7a>
}

void I2C_Write_GPIO(unsigned int data)
{
	I2C_Write_Reg(IOSTATE, data);
}
 8003570:	4770      	bx	lr
 8003572:	bf00      	nop

08003574 <Key_Poll_Init>:
#include "device_driver.h"

void Key_Poll_Init(void)
{
	Macro_Set_Bit(RCC->APB2ENR, 3);
 8003574:	f44f 5280 	mov.w	r2, #4096	; 0x1000
 8003578:	f2c4 0202 	movt	r2, #16386	; 0x4002
 800357c:	6991      	ldr	r1, [r2, #24]
	Macro_Write_Block(GPIOB->CRL, 0xff, 0x44, 24);
 800357e:	f44f 6340 	mov.w	r3, #3072	; 0xc00
#include "device_driver.h"

void Key_Poll_Init(void)
{
	Macro_Set_Bit(RCC->APB2ENR, 3);
 8003582:	f041 0108 	orr.w	r1, r1, #8
 8003586:	6191      	str	r1, [r2, #24]
	Macro_Write_Block(GPIOB->CRL, 0xff, 0x44, 24);
 8003588:	f2c4 0301 	movt	r3, #16385	; 0x4001
 800358c:	681a      	ldr	r2, [r3, #0]
 800358e:	f022 427f 	bic.w	r2, r2, #4278190080	; 0xff000000
 8003592:	f042 4288 	orr.w	r2, r2, #1140850688	; 0x44000000
 8003596:	601a      	str	r2, [r3, #0]
 8003598:	4770      	bx	lr
 800359a:	bf00      	nop

0800359c <Key_Get_Pressed>:

#define COUNT_FOR_CHAT 		20000

static int Key_Check_Input(void)
{
	return ~Macro_Extract_Area(GPIOB->IDR, 0x3, 6) & 0x3;
 800359c:	f44f 6140 	mov.w	r1, #3072	; 0xc00
 80035a0:	f2c4 0101 	movt	r1, #16385	; 0x4001
 80035a4:	6888      	ldr	r0, [r1, #8]
 80035a6:	f644 6320 	movw	r3, #20000	; 0x4e20
 80035aa:	f080 00c0 	eor.w	r0, r0, #192	; 0xc0
 80035ae:	f3c0 1081 	ubfx	r0, r0, #6, #2
 80035b2:	688a      	ldr	r2, [r1, #8]
 80035b4:	f082 02c0 	eor.w	r2, r2, #192	; 0xc0
 80035b8:	f3c2 1281 	ubfx	r2, r2, #6, #2
	{
		k = Key_Check_Input();

		for(i=0; i<COUNT_FOR_CHAT; i++)
		{
			if(k != Key_Check_Input())
 80035bc:	4290      	cmp	r0, r2
 80035be:	d1f1      	bne.n	80035a4 <Key_Get_Pressed+0x8>

	for(;;)
	{
		k = Key_Check_Input();

		for(i=0; i<COUNT_FOR_CHAT; i++)
 80035c0:	3b01      	subs	r3, #1
 80035c2:	d1f6      	bne.n	80035b2 <Key_Get_Pressed+0x16>

		if(i == COUNT_FOR_CHAT) break;
	}

	return k;
}
 80035c4:	4770      	bx	lr
 80035c6:	bf00      	nop

080035c8 <Key_Wait_Key_Released>:

#define COUNT_FOR_CHAT 		20000

static int Key_Check_Input(void)
{
	return ~Macro_Extract_Area(GPIOB->IDR, 0x3, 6) & 0x3;
 80035c8:	f44f 6040 	mov.w	r0, #3072	; 0xc00
 80035cc:	f2c4 0001 	movt	r0, #16385	; 0x4001
 80035d0:	6881      	ldr	r1, [r0, #8]
 80035d2:	f644 6320 	movw	r3, #20000	; 0x4e20
 80035d6:	f081 01c0 	eor.w	r1, r1, #192	; 0xc0
 80035da:	f3c1 1181 	ubfx	r1, r1, #6, #2
 80035de:	6882      	ldr	r2, [r0, #8]
 80035e0:	f082 02c0 	eor.w	r2, r2, #192	; 0xc0
 80035e4:	f3c2 1281 	ubfx	r2, r2, #6, #2
	{
		k = Key_Check_Input();

		for(i=0; i<COUNT_FOR_CHAT; i++)
		{
			if(k != Key_Check_Input())
 80035e8:	4291      	cmp	r1, r2
 80035ea:	d1f1      	bne.n	80035d0 <Key_Wait_Key_Released+0x8>

	for(;;)
	{
		k = Key_Check_Input();

		for(i=0; i<COUNT_FOR_CHAT; i++)
 80035ec:	3b01      	subs	r3, #1
 80035ee:	d1f6      	bne.n	80035de <Key_Wait_Key_Released+0x16>
	return k;
}

void Key_Wait_Key_Released(void)
{
	while(Key_Get_Pressed());
 80035f0:	2900      	cmp	r1, #0
 80035f2:	d1ed      	bne.n	80035d0 <Key_Wait_Key_Released+0x8>
}
 80035f4:	4770      	bx	lr
 80035f6:	bf00      	nop

080035f8 <Key_Wait_Key_Pressed>:

#define COUNT_FOR_CHAT 		20000

static int Key_Check_Input(void)
{
	return ~Macro_Extract_Area(GPIOB->IDR, 0x3, 6) & 0x3;
 80035f8:	f44f 6140 	mov.w	r1, #3072	; 0xc00
 80035fc:	f2c4 0101 	movt	r1, #16385	; 0x4001
 8003600:	6888      	ldr	r0, [r1, #8]
 8003602:	f644 6320 	movw	r3, #20000	; 0x4e20
 8003606:	f080 00c0 	eor.w	r0, r0, #192	; 0xc0
 800360a:	f3c0 1081 	ubfx	r0, r0, #6, #2
 800360e:	688a      	ldr	r2, [r1, #8]
 8003610:	f082 02c0 	eor.w	r2, r2, #192	; 0xc0
 8003614:	f3c2 1281 	ubfx	r2, r2, #6, #2
	{
		k = Key_Check_Input();

		for(i=0; i<COUNT_FOR_CHAT; i++)
		{
			if(k != Key_Check_Input())
 8003618:	4290      	cmp	r0, r2
 800361a:	d1f1      	bne.n	8003600 <Key_Wait_Key_Pressed+0x8>

	for(;;)
	{
		k = Key_Check_Input();

		for(i=0; i<COUNT_FOR_CHAT; i++)
 800361c:	3b01      	subs	r3, #1
 800361e:	d1f6      	bne.n	800360e <Key_Wait_Key_Pressed+0x16>

int Key_Wait_Key_Pressed(void)
{
	int k;

	while((k = Key_Get_Pressed()) == 0);
 8003620:	2800      	cmp	r0, #0
 8003622:	d0ed      	beq.n	8003600 <Key_Wait_Key_Pressed+0x8>
	return k;
}
 8003624:	4770      	bx	lr
 8003626:	bf00      	nop

08003628 <Key_ISR_Enable>:

void Key_ISR_Enable(int en)
{
 8003628:	b410      	push	{r4}
	if(en)
 800362a:	b9b0      	cbnz	r0, 800365a <Key_ISR_Enable+0x32>
 * Disable a device specific interupt in the NVIC interrupt controller.
 * The interrupt number cannot be a negative value.
 */
static __INLINE void NVIC_DisableIRQ(IRQn_Type IRQn)
{
  NVIC->ICER[((uint32_t)(IRQn) >> 5)] = (1 << ((uint32_t)(IRQn) & 0x1F)); /* disable interrupt */
 800362c:	f44f 4261 	mov.w	r2, #57600	; 0xe100
 8003630:	f2ce 0200 	movt	r2, #57344	; 0xe000
 8003634:	f44f 0100 	mov.w	r1, #8388608	; 0x800000
	}

	else
	{
		NVIC_DisableIRQ((IRQn_Type)23);
		Macro_Clear_Bit(RCC->APB2ENR,3);
 8003638:	f44f 5380 	mov.w	r3, #4096	; 0x1000
 800363c:	f8c2 1080 	str.w	r1, [r2, #128]	; 0x80
 8003640:	f2c4 0302 	movt	r3, #16386	; 0x4002
 8003644:	699a      	ldr	r2, [r3, #24]
 8003646:	f022 0208 	bic.w	r2, r2, #8
 800364a:	619a      	str	r2, [r3, #24]
		Macro_Clear_Bit(RCC->APB2ENR,0);
 800364c:	699a      	ldr	r2, [r3, #24]
 800364e:	f022 0201 	bic.w	r2, r2, #1
 8003652:	619a      	str	r2, [r3, #24]
	}
}
 8003654:	f85d 4b04 	ldr.w	r4, [sp], #4
 8003658:	4770      	bx	lr

void Key_ISR_Enable(int en)
{
	if(en)
	{
		Macro_Set_Bit(RCC->APB2ENR,3);
 800365a:	f44f 5380 	mov.w	r3, #4096	; 0x1000
 800365e:	f2c4 0302 	movt	r3, #16386	; 0x4002
 8003662:	699a      	ldr	r2, [r3, #24]
		Macro_Set_Bit(RCC->APB2ENR,0);

		Macro_Write_Block(GPIOB->CRL,0xff,0x44,24);
 8003664:	f44f 6140 	mov.w	r1, #3072	; 0xc00

void Key_ISR_Enable(int en)
{
	if(en)
	{
		Macro_Set_Bit(RCC->APB2ENR,3);
 8003668:	f042 0208 	orr.w	r2, r2, #8
 800366c:	619a      	str	r2, [r3, #24]
		Macro_Set_Bit(RCC->APB2ENR,0);
 800366e:	699a      	ldr	r2, [r3, #24]

		Macro_Write_Block(GPIOB->CRL,0xff,0x44,24);
 8003670:	f2c4 0101 	movt	r1, #16385	; 0x4001
void Key_ISR_Enable(int en)
{
	if(en)
	{
		Macro_Set_Bit(RCC->APB2ENR,3);
		Macro_Set_Bit(RCC->APB2ENR,0);
 8003674:	f042 0201 	orr.w	r2, r2, #1
 8003678:	619a      	str	r2, [r3, #24]

		Macro_Write_Block(GPIOB->CRL,0xff,0x44,24);
 800367a:	680b      	ldr	r3, [r1, #0]
		Macro_Write_Block(AFIO->EXTICR[1],0xff,0x11,8);
 800367c:	2200      	movs	r2, #0
	if(en)
	{
		Macro_Set_Bit(RCC->APB2ENR,3);
		Macro_Set_Bit(RCC->APB2ENR,0);

		Macro_Write_Block(GPIOB->CRL,0xff,0x44,24);
 800367e:	f023 437f 	bic.w	r3, r3, #4278190080	; 0xff000000
 8003682:	f043 4388 	orr.w	r3, r3, #1140850688	; 0x44000000
 8003686:	600b      	str	r3, [r1, #0]
		Macro_Write_Block(AFIO->EXTICR[1],0xff,0x11,8);
 8003688:	f2c4 0201 	movt	r2, #16385	; 0x4001
 800368c:	68d1      	ldr	r1, [r2, #12]
		Macro_Write_Block(EXTI->FTSR,0x3,0x3,6);
 800368e:	f44f 6380 	mov.w	r3, #1024	; 0x400
	{
		Macro_Set_Bit(RCC->APB2ENR,3);
		Macro_Set_Bit(RCC->APB2ENR,0);

		Macro_Write_Block(GPIOB->CRL,0xff,0x44,24);
		Macro_Write_Block(AFIO->EXTICR[1],0xff,0x11,8);
 8003692:	f421 417f 	bic.w	r1, r1, #65280	; 0xff00
 8003696:	f441 5188 	orr.w	r1, r1, #4352	; 0x1100
 800369a:	60d1      	str	r1, [r2, #12]
		Macro_Write_Block(EXTI->FTSR,0x3,0x3,6);
 800369c:	f2c4 0301 	movt	r3, #16385	; 0x4001
 80036a0:	68dc      	ldr	r4, [r3, #12]
 * Clear the pending bit for the specified interrupt. 
 * The interrupt number cannot be a negative value.
 */
static __INLINE void NVIC_ClearPendingIRQ(IRQn_Type IRQn)
{
  NVIC->ICPR[((uint32_t)(IRQn) >> 5)] = (1 << ((uint32_t)(IRQn) & 0x1F)); /* Clear pending interrupt */
 80036a2:	f44f 4261 	mov.w	r2, #57600	; 0xe100
 80036a6:	f044 04c0 	orr.w	r4, r4, #192	; 0xc0
		EXTI->PR = (0x3<<6);
 80036aa:	20c0      	movs	r0, #192	; 0xc0
 80036ac:	f2ce 0200 	movt	r2, #57344	; 0xe000
 80036b0:	f44f 0100 	mov.w	r1, #8388608	; 0x800000
		Macro_Set_Bit(RCC->APB2ENR,3);
		Macro_Set_Bit(RCC->APB2ENR,0);

		Macro_Write_Block(GPIOB->CRL,0xff,0x44,24);
		Macro_Write_Block(AFIO->EXTICR[1],0xff,0x11,8);
		Macro_Write_Block(EXTI->FTSR,0x3,0x3,6);
 80036b4:	60dc      	str	r4, [r3, #12]
		EXTI->PR = (0x3<<6);
 80036b6:	6158      	str	r0, [r3, #20]
 80036b8:	f8c2 1180 	str.w	r1, [r2, #384]	; 0x180
		NVIC_ClearPendingIRQ((IRQn_Type)23);
		Macro_Write_Block(EXTI->IMR,0x3,0x3,6);
 80036bc:	6818      	ldr	r0, [r3, #0]
 80036be:	f040 00c0 	orr.w	r0, r0, #192	; 0xc0
 80036c2:	6018      	str	r0, [r3, #0]
 * Enable a device specific interupt in the NVIC interrupt controller.
 * The interrupt number cannot be a negative value.
 */
static __INLINE void NVIC_EnableIRQ(IRQn_Type IRQn)
{
  NVIC->ISER[((uint32_t)(IRQn) >> 5)] = (1 << ((uint32_t)(IRQn) & 0x1F)); /* enable interrupt */
 80036c4:	6011      	str	r1, [r2, #0]
	{
		NVIC_DisableIRQ((IRQn_Type)23);
		Macro_Clear_Bit(RCC->APB2ENR,3);
		Macro_Clear_Bit(RCC->APB2ENR,0);
	}
}
 80036c6:	f85d 4b04 	ldr.w	r4, [sp], #4
 80036ca:	4770      	bx	lr

080036cc <LED_Init>:
#include "device_driver.h"

void LED_Init(void)
{
	Macro_Set_Bit(RCC->APB2ENR, 3);
 80036cc:	f44f 5280 	mov.w	r2, #4096	; 0x1000
 80036d0:	f2c4 0202 	movt	r2, #16386	; 0x4002
 80036d4:	6991      	ldr	r1, [r2, #24]
	Macro_Write_Block(GPIOB->CRH, 0xff, 0x66, 0);
 80036d6:	f44f 6340 	mov.w	r3, #3072	; 0xc00
#include "device_driver.h"

void LED_Init(void)
{
	Macro_Set_Bit(RCC->APB2ENR, 3);
 80036da:	f041 0108 	orr.w	r1, r1, #8
 80036de:	6191      	str	r1, [r2, #24]
	Macro_Write_Block(GPIOB->CRH, 0xff, 0x66, 0);
 80036e0:	f2c4 0301 	movt	r3, #16385	; 0x4001
 80036e4:	685a      	ldr	r2, [r3, #4]
 80036e6:	f022 02ff 	bic.w	r2, r2, #255	; 0xff
 80036ea:	f042 0266 	orr.w	r2, r2, #102	; 0x66
 80036ee:	605a      	str	r2, [r3, #4]
	Macro_Set_Area(GPIOB->ODR, 0x3, 8);
 80036f0:	68da      	ldr	r2, [r3, #12]
 80036f2:	f442 7240 	orr.w	r2, r2, #768	; 0x300
 80036f6:	60da      	str	r2, [r3, #12]
 80036f8:	4770      	bx	lr
 80036fa:	bf00      	nop

080036fc <LED_Display>:
}

void LED_Display(unsigned int num)
{
	Macro_Write_Block(GPIOB->ODR, 0x3, (~num & 3), 8);
 80036fc:	f44f 6340 	mov.w	r3, #3072	; 0xc00
 8003700:	f2c4 0301 	movt	r3, #16385	; 0x4001
 8003704:	68da      	ldr	r2, [r3, #12]
 8003706:	43c0      	mvns	r0, r0
 8003708:	f000 0003 	and.w	r0, r0, #3
 800370c:	f422 7240 	bic.w	r2, r2, #768	; 0x300
 8003710:	ea42 2200 	orr.w	r2, r2, r0, lsl #8
 8003714:	60da      	str	r2, [r3, #12]
 8003716:	4770      	bx	lr

08003718 <LED_All_On>:
}

void LED_All_On(void)
{
	Macro_Clear_Area(GPIOB->ODR, 0x3, 8);
 8003718:	f44f 6340 	mov.w	r3, #3072	; 0xc00
 800371c:	f2c4 0301 	movt	r3, #16385	; 0x4001
 8003720:	68da      	ldr	r2, [r3, #12]
 8003722:	f422 7240 	bic.w	r2, r2, #768	; 0x300
 8003726:	60da      	str	r2, [r3, #12]
 8003728:	4770      	bx	lr
 800372a:	bf00      	nop

0800372c <LED_All_Off>:
}

void LED_All_Off(void)
{
	Macro_Set_Area(GPIOB->ODR, 0x3, 8);
 800372c:	f44f 6340 	mov.w	r3, #3072	; 0xc00
 8003730:	f2c4 0301 	movt	r3, #16385	; 0x4001
 8003734:	68da      	ldr	r2, [r3, #12]
 8003736:	f442 7240 	orr.w	r2, r2, #768	; 0x300
 800373a:	60da      	str	r2, [r3, #12]
 800373c:	4770      	bx	lr
 800373e:	bf00      	nop

08003740 <Main>:
int speed_level = 50; //   (%)
extern volatile int Uart1_Rx_In;
extern volatile int Uart1_Rx_Data;

void Main(void)
{
 8003740:	e92d 43f8 	stmdb	sp!, {r3, r4, r5, r6, r7, r8, r9, lr}
    device_init();
 8003744:	f000 f85a 	bl	80037fc <device_init>
    Uart1_Printf("Motor Control System Ready\n");
 8003748:	f24a 50e0 	movw	r0, #42464	; 0xa5e0
 800374c:	f6c0 0000 	movt	r0, #2048	; 0x800
 8003750:	f000 fd92 	bl	8004278 <Uart1_Printf>
 8003754:	f240 5498 	movw	r4, #1432	; 0x598
 8003758:	f2c2 0400 	movt	r4, #8192	; 0x2000
 800375c:	f240 5794 	movw	r7, #1428	; 0x594
 8003760:	f240 5684 	movw	r6, #1412	; 0x584
 8003764:	f240 0500 	movw	r5, #0
            }
        }
        else if (key_pressed == 2) // Key1: I2C 
        {
            Uart1_Printf("Using I2C Communication\n");
            if (Uart1_Rx_In)
 8003768:	46a1      	mov	r9, r4
 800376a:	f2c2 0700 	movt	r7, #8192	; 0x2000
 800376e:	f2c2 0600 	movt	r6, #8192	; 0x2000
 8003772:	f2c2 0500 	movt	r5, #8192	; 0x2000
            {
                received_command = Uart1_Rx_Data;
                Uart1_Rx_In = 0;
 8003776:	f04f 0800 	mov.w	r8, #0
    device_init();
    Uart1_Printf("Motor Control System Ready\n");

    for(;;)
    {
        int key_pressed = Key_Get_Pressed();
 800377a:	f7ff ff0f 	bl	800359c <Key_Get_Pressed>
        
        if (key_pressed == 1) // Key0: UART 
 800377e:	2801      	cmp	r0, #1
 8003780:	d01e      	beq.n	80037c0 <Main+0x80>
                {
                    device_execute(received_command, speed_level);
                }
            }
        }
        else if (key_pressed == 2) // Key1: I2C 
 8003782:	2802      	cmp	r0, #2
 8003784:	d1f9      	bne.n	800377a <Main+0x3a>
        {
            Uart1_Printf("Using I2C Communication\n");
 8003786:	f24a 6010 	movw	r0, #42512	; 0xa610
 800378a:	f6c0 0000 	movt	r0, #2048	; 0x800
 800378e:	f000 fd73 	bl	8004278 <Uart1_Printf>
            if (Uart1_Rx_In)
 8003792:	6823      	ldr	r3, [r4, #0]
 8003794:	2b00      	cmp	r3, #0
 8003796:	d0f0      	beq.n	800377a <Main+0x3a>
            {
                received_command = Uart1_Rx_Data;
 8003798:	6838      	ldr	r0, [r7, #0]
                Uart1_Rx_In = 0;
 800379a:	f8c9 8000 	str.w	r8, [r9]
        else if (key_pressed == 2) // Key1: I2C 
        {
            Uart1_Printf("Using I2C Communication\n");
            if (Uart1_Rx_In)
            {
                received_command = Uart1_Rx_Data;
 800379e:	b2c0      	uxtb	r0, r0
                Uart1_Rx_In = 0;
                
                if (received_command >= '1' && received_command <= '8')
 80037a0:	f1a0 0331 	sub.w	r3, r0, #49	; 0x31
 80037a4:	b2db      	uxtb	r3, r3
 80037a6:	2b07      	cmp	r3, #7
        else if (key_pressed == 2) // Key1: I2C 
        {
            Uart1_Printf("Using I2C Communication\n");
            if (Uart1_Rx_In)
            {
                received_command = Uart1_Rx_Data;
 80037a8:	7030      	strb	r0, [r6, #0]
                Uart1_Rx_In = 0;
                
                if (received_command >= '1' && received_command <= '8')
 80037aa:	d91a      	bls.n	80037e2 <Main+0xa2>
                    speed_level = (received_command - '0') * 10;
                    Uart1_Printf("Speed Level: %d\n", speed_level);
                }
                else
                {
                    device_execute(received_command, speed_level);
 80037ac:	6829      	ldr	r1, [r5, #0]
 80037ae:	f000 f881 	bl	80038b4 <device_execute>
                    control_led_with_i2c(speed_level);
 80037b2:	6828      	ldr	r0, [r5, #0]
 80037b4:	f000 f8d4 	bl	8003960 <control_led_with_i2c>
    device_init();
    Uart1_Printf("Motor Control System Ready\n");

    for(;;)
    {
        int key_pressed = Key_Get_Pressed();
 80037b8:	f7ff fef0 	bl	800359c <Key_Get_Pressed>
        
        if (key_pressed == 1) // Key0: UART 
 80037bc:	2801      	cmp	r0, #1
 80037be:	d1e0      	bne.n	8003782 <Main+0x42>
        {
            if (Uart1_Rx_In)
 80037c0:	6823      	ldr	r3, [r4, #0]
 80037c2:	2b00      	cmp	r3, #0
 80037c4:	d0d9      	beq.n	800377a <Main+0x3a>
            {
                received_command = Uart1_Rx_Data;
 80037c6:	6838      	ldr	r0, [r7, #0]
                Uart1_Rx_In = 0;
 80037c8:	f8c9 8000 	str.w	r8, [r9]
        
        if (key_pressed == 1) // Key0: UART 
        {
            if (Uart1_Rx_In)
            {
                received_command = Uart1_Rx_Data;
 80037cc:	b2c0      	uxtb	r0, r0
                Uart1_Rx_In = 0;
                if (received_command >= '1' && received_command <= '8')
 80037ce:	f1a0 0331 	sub.w	r3, r0, #49	; 0x31
 80037d2:	b2db      	uxtb	r3, r3
 80037d4:	2b07      	cmp	r3, #7
        
        if (key_pressed == 1) // Key0: UART 
        {
            if (Uart1_Rx_In)
            {
                received_command = Uart1_Rx_Data;
 80037d6:	7030      	strb	r0, [r6, #0]
                Uart1_Rx_In = 0;
                if (received_command >= '1' && received_command <= '8')
 80037d8:	d903      	bls.n	80037e2 <Main+0xa2>
                    speed_level = (received_command - '0') * 10;
                    Uart1_Printf("Speed Level: %d\n", speed_level);
                }
                else
                {
                    device_execute(received_command, speed_level);
 80037da:	6829      	ldr	r1, [r5, #0]
 80037dc:	f000 f86a 	bl	80038b4 <device_execute>
 80037e0:	e7cb      	b.n	800377a <Main+0x3a>
                received_command = Uart1_Rx_Data;
                Uart1_Rx_In = 0;
                
                if (received_command >= '1' && received_command <= '8')
                {
                    speed_level = (received_command - '0') * 10;
 80037e2:	3830      	subs	r0, #48	; 0x30
 80037e4:	eb00 0080 	add.w	r0, r0, r0, lsl #2
 80037e8:	0043      	lsls	r3, r0, #1
                    Uart1_Printf("Speed Level: %d\n", speed_level);
 80037ea:	f24a 50fc 	movw	r0, #42492	; 0xa5fc
 80037ee:	4619      	mov	r1, r3
 80037f0:	f6c0 0000 	movt	r0, #2048	; 0x800
                received_command = Uart1_Rx_Data;
                Uart1_Rx_In = 0;
                
                if (received_command >= '1' && received_command <= '8')
                {
                    speed_level = (received_command - '0') * 10;
 80037f4:	602b      	str	r3, [r5, #0]
                    Uart1_Printf("Speed Level: %d\n", speed_level);
 80037f6:	f000 fd3f 	bl	8004278 <Uart1_Printf>
 80037fa:	e7be      	b.n	800377a <Main+0x3a>

080037fc <device_init>:

#define TIM2_FREQUENCY 72000000 //   (72MHz)
#define MOTOR_PWM_FREQ 100000    // PWM  (10kHz)

void device_init()
{
 80037fc:	b538      	push	{r3, r4, r5, lr}
    Uart1_Init(115200);
 80037fe:	f44f 30e1 	mov.w	r0, #115200	; 0x1c200
 8003802:	f000 fc9d 	bl	8004140 <Uart1_Init>
    Uart1_RX_Interrupt_Enable(1);
 8003806:	2001      	movs	r0, #1
 8003808:	f000 fd7e 	bl	8004308 <Uart1_RX_Interrupt_Enable>
    Clock_Init();
 800380c:	f7ff fcee 	bl	80031ec <Clock_Init>
    Key_Poll_Init();
 8003810:	f7ff feb0 	bl	8003574 <Key_Poll_Init>
    Key_ISR_Enable(1);
 8003814:	2001      	movs	r0, #1
 8003816:	f7ff ff07 	bl	8003628 <Key_ISR_Enable>
    SCB->VTOR = 0x08003000;
 800381a:	f44f 436d 	mov.w	r3, #60672	; 0xed00
 800381e:	f44f 5040 	mov.w	r0, #12288	; 0x3000
    SCB->SHCSR = 0;
 8003822:	2200      	movs	r2, #0
    Uart1_Init(115200);
    Uart1_RX_Interrupt_Enable(1);
    Clock_Init();
    Key_Poll_Init();
    Key_ISR_Enable(1);
    SCB->VTOR = 0x08003000;
 8003824:	f2ce 0300 	movt	r3, #57344	; 0xe000
 8003828:	f6c0 0000 	movt	r0, #2048	; 0x800
    SCB->SHCSR = 0;

    RCC->APB1ENR |= (1 << 0);    // TIM2  
 800382c:	f44f 5180 	mov.w	r1, #4096	; 0x1000
    Uart1_Init(115200);
    Uart1_RX_Interrupt_Enable(1);
    Clock_Init();
    Key_Poll_Init();
    Key_ISR_Enable(1);
    SCB->VTOR = 0x08003000;
 8003830:	6098      	str	r0, [r3, #8]
    SCB->SHCSR = 0;

    RCC->APB1ENR |= (1 << 0);    // TIM2  
 8003832:	f2c4 0102 	movt	r1, #16386	; 0x4002
    Uart1_RX_Interrupt_Enable(1);
    Clock_Init();
    Key_Poll_Init();
    Key_ISR_Enable(1);
    SCB->VTOR = 0x08003000;
    SCB->SHCSR = 0;
 8003836:	625a      	str	r2, [r3, #36]	; 0x24

    RCC->APB1ENR |= (1 << 0);    // TIM2  
 8003838:	69cd      	ldr	r5, [r1, #28]

    // TIM2 PWM 
    TIM2->PSC = (TIM2_FREQUENCY / MOTOR_PWM_FREQ) - 1; //  
 800383a:	f04f 4380 	mov.w	r3, #1073741824	; 0x40000000
    Key_Poll_Init();
    Key_ISR_Enable(1);
    SCB->VTOR = 0x08003000;
    SCB->SHCSR = 0;

    RCC->APB1ENR |= (1 << 0);    // TIM2  
 800383e:	f045 0501 	orr.w	r5, r5, #1

    // TIM2 PWM 
    TIM2->PSC = (TIM2_FREQUENCY / MOTOR_PWM_FREQ) - 1; //  
 8003842:	f240 24cf 	movw	r4, #719	; 0x2cf
    TIM2->ARR = 100;                                   //    (  0~100%)
 8003846:	2064      	movs	r0, #100	; 0x64
    Key_Poll_Init();
    Key_ISR_Enable(1);
    SCB->VTOR = 0x08003000;
    SCB->SHCSR = 0;

    RCC->APB1ENR |= (1 << 0);    // TIM2  
 8003848:	61cd      	str	r5, [r1, #28]

    // TIM2 PWM 
    TIM2->PSC = (TIM2_FREQUENCY / MOTOR_PWM_FREQ) - 1; //  
 800384a:	851c      	strh	r4, [r3, #40]	; 0x28
    TIM2->ARR = 100;                                   //    (  0~100%)
 800384c:	8598      	strh	r0, [r3, #44]	; 0x2c
    TIM2->CCR3 = 0;                                    //  3 (PA2)   
 800384e:	879a      	strh	r2, [r3, #60]	; 0x3c
    TIM2->CCR4 = 0;                                    //  4 (PA3)   
 8003850:	f8a3 2040 	strh.w	r2, [r3, #64]	; 0x40
    TIM2->CCMR2 &= ~((0x7 << 4) | (0x7 << 12));        //   
 8003854:	8b9a      	ldrh	r2, [r3, #28]
    TIM2->CR1 |= (1 << 0); // TIM2 

    // PortA Clock ON
    Macro_Set_Bit(RCC->APB2ENR, 2);
    // PA1(EN),PA2(1A),PA3(2A) ->General Purpose Output Push-Pull
    Macro_Write_Block(GPIOA->CRL, 0xff, 0xBB, 8);
 8003856:	f44f 6400 	mov.w	r4, #2048	; 0x800
    // TIM2 PWM 
    TIM2->PSC = (TIM2_FREQUENCY / MOTOR_PWM_FREQ) - 1; //  
    TIM2->ARR = 100;                                   //    (  0~100%)
    TIM2->CCR3 = 0;                                    //  3 (PA2)   
    TIM2->CCR4 = 0;                                    //  4 (PA3)   
    TIM2->CCMR2 &= ~((0x7 << 4) | (0x7 << 12));        //   
 800385a:	f422 42e0 	bic.w	r2, r2, #28672	; 0x7000
 800385e:	f022 0270 	bic.w	r2, r2, #112	; 0x70
 8003862:	0412      	lsls	r2, r2, #16
 8003864:	0c12      	lsrs	r2, r2, #16
 8003866:	839a      	strh	r2, [r3, #28]
    TIM2->CCMR2 |= (0x6 << 4) | (0x6 << 12); // CH3, CH4: PWM  1
 8003868:	8b9a      	ldrh	r2, [r3, #28]
    TIM2->CR1 |= (1 << 0); // TIM2 

    // PortA Clock ON
    Macro_Set_Bit(RCC->APB2ENR, 2);
    // PA1(EN),PA2(1A),PA3(2A) ->General Purpose Output Push-Pull
    Macro_Write_Block(GPIOA->CRL, 0xff, 0xBB, 8);
 800386a:	f2c4 0401 	movt	r4, #16385	; 0x4001
    TIM2->PSC = (TIM2_FREQUENCY / MOTOR_PWM_FREQ) - 1; //  
    TIM2->ARR = 100;                                   //    (  0~100%)
    TIM2->CCR3 = 0;                                    //  3 (PA2)   
    TIM2->CCR4 = 0;                                    //  4 (PA3)   
    TIM2->CCMR2 &= ~((0x7 << 4) | (0x7 << 12));        //   
    TIM2->CCMR2 |= (0x6 << 4) | (0x6 << 12); // CH3, CH4: PWM  1
 800386e:	b292      	uxth	r2, r2
 8003870:	f442 42c0 	orr.w	r2, r2, #24576	; 0x6000
 8003874:	f042 0260 	orr.w	r2, r2, #96	; 0x60
 8003878:	839a      	strh	r2, [r3, #28]
    TIM2->CCER |= (1 << 8) | (1 << 12);
 800387a:	8c1a      	ldrh	r2, [r3, #32]
    Macro_Set_Bit(RCC->APB2ENR, 2);
    // PA1(EN),PA2(1A),PA3(2A) ->General Purpose Output Push-Pull
    Macro_Write_Block(GPIOA->CRL, 0xff, 0xBB, 8);

    //I2C init
    I2C_Init(5000);
 800387c:	f241 3088 	movw	r0, #5000	; 0x1388
    TIM2->ARR = 100;                                   //    (  0~100%)
    TIM2->CCR3 = 0;                                    //  3 (PA2)   
    TIM2->CCR4 = 0;                                    //  4 (PA3)   
    TIM2->CCMR2 &= ~((0x7 << 4) | (0x7 << 12));        //   
    TIM2->CCMR2 |= (0x6 << 4) | (0x6 << 12); // CH3, CH4: PWM  1
    TIM2->CCER |= (1 << 8) | (1 << 12);
 8003880:	b292      	uxth	r2, r2
 8003882:	f442 5288 	orr.w	r2, r2, #4352	; 0x1100
 8003886:	841a      	strh	r2, [r3, #32]
    TIM2->CR1 |= (1 << 0); // TIM2 
 8003888:	881a      	ldrh	r2, [r3, #0]
 800388a:	b292      	uxth	r2, r2
 800388c:	f042 0201 	orr.w	r2, r2, #1
 8003890:	801a      	strh	r2, [r3, #0]

    // PortA Clock ON
    Macro_Set_Bit(RCC->APB2ENR, 2);
 8003892:	698b      	ldr	r3, [r1, #24]
 8003894:	f043 0304 	orr.w	r3, r3, #4
 8003898:	618b      	str	r3, [r1, #24]
    // PA1(EN),PA2(1A),PA3(2A) ->General Purpose Output Push-Pull
    Macro_Write_Block(GPIOA->CRL, 0xff, 0xBB, 8);
 800389a:	6823      	ldr	r3, [r4, #0]
 800389c:	f423 437f 	bic.w	r3, r3, #65280	; 0xff00
 80038a0:	f443 433b 	orr.w	r3, r3, #47872	; 0xbb00
 80038a4:	6023      	str	r3, [r4, #0]

    //I2C init
    I2C_Init(5000);
 80038a6:	f7ff fd1f 	bl	80032e8 <I2C_Init>
	I2C_Config_GPIO(0xFF);
}
 80038aa:	e8bd 4038 	ldmia.w	sp!, {r3, r4, r5, lr}
    // PA1(EN),PA2(1A),PA3(2A) ->General Purpose Output Push-Pull
    Macro_Write_Block(GPIOA->CRL, 0xff, 0xBB, 8);

    //I2C init
    I2C_Init(5000);
	I2C_Config_GPIO(0xFF);
 80038ae:	20ff      	movs	r0, #255	; 0xff
 80038b0:	f7ff bddc 	b.w	800346c <I2C_Config_GPIO>

080038b4 <device_execute>:
}

void device_execute(char command, int speed)
{    
    switch (command) {
 80038b4:	2852      	cmp	r0, #82	; 0x52
    I2C_Init(5000);
	I2C_Config_GPIO(0xFF);
}

void device_execute(char command, int speed)
{    
 80038b6:	b410      	push	{r4}
 80038b8:	4603      	mov	r3, r0
    switch (command) {
 80038ba:	d029      	beq.n	8003910 <device_execute+0x5c>
 80038bc:	2853      	cmp	r0, #83	; 0x53
 80038be:	d019      	beq.n	80038f4 <device_execute+0x40>
 80038c0:	2846      	cmp	r0, #70	; 0x46
 80038c2:	d008      	beq.n	80038d6 <device_execute+0x22>
    case 'R': //  
        Motor_Reserve(speed);
        Uart1_Printf("Motor Reverse: Speed %d\n", speed);
        break;
    default: //   
        Uart1_Printf("Invalid Command: %c\n", command);
 80038c4:	f24a 6074 	movw	r0, #42612	; 0xa674
 80038c8:	4619      	mov	r1, r3
 80038ca:	f6c0 0000 	movt	r0, #2048	; 0x800
        break;
    }
}
 80038ce:	f85d 4b04 	ldr.w	r4, [sp], #4
    case 'R': //  
        Motor_Reserve(speed);
        Uart1_Printf("Motor Reverse: Speed %d\n", speed);
        break;
    default: //   
        Uart1_Printf("Invalid Command: %c\n", command);
 80038d2:	f000 bcd1 	b.w	8004278 <Uart1_Printf>
    TIM2->CCR4 = 0; // PA3 (CH4) Low
}

void Motor_Forward(int speed)
{
    TIM2->CCR3 = speed; // PA2 (CH3):  
 80038d6:	f04f 4380 	mov.w	r3, #1073741824	; 0x40000000
    TIM2->CCR4 = 0;     // PA3 (CH4): Low
 80038da:	2400      	movs	r4, #0
    TIM2->CCR4 = 0; // PA3 (CH4) Low
}

void Motor_Forward(int speed)
{
    TIM2->CCR3 = speed; // PA2 (CH3):  
 80038dc:	b28a      	uxth	r2, r1
 80038de:	879a      	strh	r2, [r3, #60]	; 0x3c
        Motor_Stop();
        Uart1_Printf("Motor Stopped\n");
        break;
    case 'F': //  
        Motor_Forward(speed);
        Uart1_Printf("Motor Forward: Speed %d\n", speed);
 80038e0:	f24a 603c 	movw	r0, #42556	; 0xa63c
}

void Motor_Forward(int speed)
{
    TIM2->CCR3 = speed; // PA2 (CH3):  
    TIM2->CCR4 = 0;     // PA3 (CH4): Low
 80038e4:	f8a3 4040 	strh.w	r4, [r3, #64]	; 0x40
        Motor_Stop();
        Uart1_Printf("Motor Stopped\n");
        break;
    case 'F': //  
        Motor_Forward(speed);
        Uart1_Printf("Motor Forward: Speed %d\n", speed);
 80038e8:	f6c0 0000 	movt	r0, #2048	; 0x800
        break;
    default: //   
        Uart1_Printf("Invalid Command: %c\n", command);
        break;
    }
}
 80038ec:	f85d 4b04 	ldr.w	r4, [sp], #4
        Motor_Stop();
        Uart1_Printf("Motor Stopped\n");
        break;
    case 'F': //  
        Motor_Forward(speed);
        Uart1_Printf("Motor Forward: Speed %d\n", speed);
 80038f0:	f000 bcc2 	b.w	8004278 <Uart1_Printf>
    }
}

void Motor_Stop(void)
{
    TIM2->CCR3 = 0; // PA2 (CH3) Low
 80038f4:	f04f 4380 	mov.w	r3, #1073741824	; 0x40000000
 80038f8:	2200      	movs	r2, #0
 80038fa:	879a      	strh	r2, [r3, #60]	; 0x3c
void device_execute(char command, int speed)
{    
    switch (command) {
    case 'S': // `
        Motor_Stop();
        Uart1_Printf("Motor Stopped\n");
 80038fc:	f24a 602c 	movw	r0, #42540	; 0xa62c
}

void Motor_Stop(void)
{
    TIM2->CCR3 = 0; // PA2 (CH3) Low
    TIM2->CCR4 = 0; // PA3 (CH4) Low
 8003900:	f8a3 2040 	strh.w	r2, [r3, #64]	; 0x40
void device_execute(char command, int speed)
{    
    switch (command) {
    case 'S': // `
        Motor_Stop();
        Uart1_Printf("Motor Stopped\n");
 8003904:	f6c0 0000 	movt	r0, #2048	; 0x800
        break;
    default: //   
        Uart1_Printf("Invalid Command: %c\n", command);
        break;
    }
}
 8003908:	f85d 4b04 	ldr.w	r4, [sp], #4
void device_execute(char command, int speed)
{    
    switch (command) {
    case 'S': // `
        Motor_Stop();
        Uart1_Printf("Motor Stopped\n");
 800390c:	f000 bcb4 	b.w	8004278 <Uart1_Printf>
    TIM2->CCR4 = 0;     // PA3 (CH4): Low
}

void Motor_Reserve(int speed)
{
    TIM2->CCR3 = 0;     // PA2 (CH3): Low
 8003910:	f04f 4380 	mov.w	r3, #1073741824	; 0x40000000
 8003914:	2400      	movs	r4, #0
    TIM2->CCR4 = speed; // PA3 (CH4):  
 8003916:	b28a      	uxth	r2, r1
    TIM2->CCR4 = 0;     // PA3 (CH4): Low
}

void Motor_Reserve(int speed)
{
    TIM2->CCR3 = 0;     // PA2 (CH3): Low
 8003918:	879c      	strh	r4, [r3, #60]	; 0x3c
        Motor_Forward(speed);
        Uart1_Printf("Motor Forward: Speed %d\n", speed);
        break;
    case 'R': //  
        Motor_Reserve(speed);
        Uart1_Printf("Motor Reverse: Speed %d\n", speed);
 800391a:	f24a 6058 	movw	r0, #42584	; 0xa658
}

void Motor_Reserve(int speed)
{
    TIM2->CCR3 = 0;     // PA2 (CH3): Low
    TIM2->CCR4 = speed; // PA3 (CH4):  
 800391e:	f8a3 2040 	strh.w	r2, [r3, #64]	; 0x40
        Motor_Forward(speed);
        Uart1_Printf("Motor Forward: Speed %d\n", speed);
        break;
    case 'R': //  
        Motor_Reserve(speed);
        Uart1_Printf("Motor Reverse: Speed %d\n", speed);
 8003922:	f6c0 0000 	movt	r0, #2048	; 0x800
        break;
    default: //   
        Uart1_Printf("Invalid Command: %c\n", command);
        break;
    }
}
 8003926:	f85d 4b04 	ldr.w	r4, [sp], #4
        Motor_Forward(speed);
        Uart1_Printf("Motor Forward: Speed %d\n", speed);
        break;
    case 'R': //  
        Motor_Reserve(speed);
        Uart1_Printf("Motor Reverse: Speed %d\n", speed);
 800392a:	f000 bca5 	b.w	8004278 <Uart1_Printf>
 800392e:	bf00      	nop

08003930 <Motor_Stop>:
    }
}

void Motor_Stop(void)
{
    TIM2->CCR3 = 0; // PA2 (CH3) Low
 8003930:	f04f 4380 	mov.w	r3, #1073741824	; 0x40000000
 8003934:	2200      	movs	r2, #0
 8003936:	879a      	strh	r2, [r3, #60]	; 0x3c
    TIM2->CCR4 = 0; // PA3 (CH4) Low
 8003938:	f8a3 2040 	strh.w	r2, [r3, #64]	; 0x40
 800393c:	4770      	bx	lr
 800393e:	bf00      	nop

08003940 <Motor_Forward>:
}

void Motor_Forward(int speed)
{
    TIM2->CCR3 = speed; // PA2 (CH3):  
 8003940:	f04f 4380 	mov.w	r3, #1073741824	; 0x40000000
 8003944:	b280      	uxth	r0, r0
    TIM2->CCR4 = 0;     // PA3 (CH4): Low
 8003946:	2200      	movs	r2, #0
    TIM2->CCR4 = 0; // PA3 (CH4) Low
}

void Motor_Forward(int speed)
{
    TIM2->CCR3 = speed; // PA2 (CH3):  
 8003948:	8798      	strh	r0, [r3, #60]	; 0x3c
    TIM2->CCR4 = 0;     // PA3 (CH4): Low
 800394a:	f8a3 2040 	strh.w	r2, [r3, #64]	; 0x40
 800394e:	4770      	bx	lr

08003950 <Motor_Reserve>:
}

void Motor_Reserve(int speed)
{
    TIM2->CCR3 = 0;     // PA2 (CH3): Low
 8003950:	f04f 4380 	mov.w	r3, #1073741824	; 0x40000000
    TIM2->CCR4 = speed; // PA3 (CH4):  
 8003954:	b280      	uxth	r0, r0
    TIM2->CCR4 = 0;     // PA3 (CH4): Low
}

void Motor_Reserve(int speed)
{
    TIM2->CCR3 = 0;     // PA2 (CH3): Low
 8003956:	2200      	movs	r2, #0
 8003958:	879a      	strh	r2, [r3, #60]	; 0x3c
    TIM2->CCR4 = speed; // PA3 (CH4):  
 800395a:	f8a3 0040 	strh.w	r0, [r3, #64]	; 0x40
 800395e:	4770      	bx	lr

08003960 <control_led_with_i2c>:
}

void control_led_with_i2c(int speed)
{
    unsigned int led_data = ~(0xFFFFFFFF >> (speed / 10));
 8003960:	f246 6367 	movw	r3, #26215	; 0x6667
 8003964:	f2c6 6366 	movt	r3, #26214	; 0x6666
 8003968:	fb83 2300 	smull	r2, r3, r3, r0
 800396c:	17c0      	asrs	r0, r0, #31
    TIM2->CCR3 = 0;     // PA2 (CH3): Low
    TIM2->CCR4 = speed; // PA3 (CH4):  
}

void control_led_with_i2c(int speed)
{
 800396e:	b510      	push	{r4, lr}
    unsigned int led_data = ~(0xFFFFFFFF >> (speed / 10));
 8003970:	ebc0 03a3 	rsb	r3, r0, r3, asr #2
 8003974:	f04f 34ff 	mov.w	r4, #4294967295
 8003978:	40dc      	lsrs	r4, r3
 800397a:	43e4      	mvns	r4, r4
    I2C_Write_GPIO(led_data);
 800397c:	4620      	mov	r0, r4
 800397e:	f7ff fdb7 	bl	80034f0 <I2C_Write_GPIO>
    Uart1_Printf("LED Data: 0x%08X\n", led_data);
 8003982:	f24a 608c 	movw	r0, #42636	; 0xa68c
 8003986:	4621      	mov	r1, r4
 8003988:	f6c0 0000 	movt	r0, #2048	; 0x800
 800398c:	e8bd 4010 	ldmia.w	sp!, {r4, lr}

void control_led_with_i2c(int speed)
{
    unsigned int led_data = ~(0xFFFFFFFF >> (speed / 10));
    I2C_Write_GPIO(led_data);
    Uart1_Printf("LED Data: 0x%08X\n", led_data);
 8003990:	f000 bc72 	b.w	8004278 <Uart1_Printf>

08003994 <_sbrk>:
#include "device_driver.h"

char * _sbrk(int inc)
{
 8003994:	b410      	push	{r4}
	static char * heap = (char *)0;

	char * prevHeap;
	char * nextHeap;

	if(heap == (char *)0) heap = (char *)HEAP_BASE;
 8003996:	f240 5388 	movw	r3, #1416	; 0x588
 800399a:	f2c2 0300 	movt	r3, #8192	; 0x2000
 800399e:	6819      	ldr	r1, [r3, #0]
#include "device_driver.h"

char * _sbrk(int inc)
{
 80039a0:	4602      	mov	r2, r0
	static char * heap = (char *)0;

	char * prevHeap;
	char * nextHeap;

	if(heap == (char *)0) heap = (char *)HEAP_BASE;
 80039a2:	b181      	cbz	r1, 80039c6 <_sbrk+0x32>
 80039a4:	4c0b      	ldr	r4, [pc, #44]	; (80039d4 <_sbrk+0x40>)
 80039a6:	4608      	mov	r0, r1
 80039a8:	f024 0107 	bic.w	r1, r4, #7

	prevHeap = heap;
	nextHeap = (char *)((((unsigned int)heap + inc) + 0x7) & ~0x7);
 80039ac:	3207      	adds	r2, #7
 80039ae:	4402      	add	r2, r0
 80039b0:	f022 0207 	bic.w	r2, r2, #7

	if((unsigned int)nextHeap >= HEAP_LIMIT) return (char *)0;
 80039b4:	f501 5180 	add.w	r1, r1, #4096	; 0x1000
 80039b8:	428a      	cmp	r2, r1

	heap = nextHeap;
 80039ba:	bf34      	ite	cc
 80039bc:	601a      	strcc	r2, [r3, #0]
	if(heap == (char *)0) heap = (char *)HEAP_BASE;

	prevHeap = heap;
	nextHeap = (char *)((((unsigned int)heap + inc) + 0x7) & ~0x7);

	if((unsigned int)nextHeap >= HEAP_LIMIT) return (char *)0;
 80039be:	2000      	movcs	r0, #0

	heap = nextHeap;
	return prevHeap;
}
 80039c0:	f85d 4b04 	ldr.w	r4, [sp], #4
 80039c4:	4770      	bx	lr
	static char * heap = (char *)0;

	char * prevHeap;
	char * nextHeap;

	if(heap == (char *)0) heap = (char *)HEAP_BASE;
 80039c6:	4903      	ldr	r1, [pc, #12]	; (80039d4 <_sbrk+0x40>)
 80039c8:	f021 0107 	bic.w	r1, r1, #7
 80039cc:	6019      	str	r1, [r3, #0]
 80039ce:	4608      	mov	r0, r1
 80039d0:	e7ec      	b.n	80039ac <_sbrk+0x18>
 80039d2:	bf00      	nop
 80039d4:	200005e3 	andcs	r0, r0, r3, ror #11

080039d8 <Stack_Dump>:
}

static char * const Stack_reg[] = {"R0","R1","R2","R3","R12","LR","RA","xPSR"};

static void Stack_Dump(const char * stack, unsigned int * sp)
{
 80039d8:	b5f0      	push	{r4, r5, r6, r7, lr}
	int i;

	for(i=0; i<(sizeof(Stack_reg)/sizeof(Stack_reg[0])); i++)
 80039da:	2300      	movs	r3, #0
 80039dc:	4d0b      	ldr	r5, [pc, #44]	; (8003a0c <Stack_Dump+0x34>)
}

static char * const Stack_reg[] = {"R0","R1","R2","R3","R12","LR","RA","xPSR"};

static void Stack_Dump(const char * stack, unsigned int * sp)
{
 80039de:	b083      	sub	sp, #12
 80039e0:	4606      	mov	r6, r0
 80039e2:	460f      	mov	r7, r1
	int i;

	for(i=0; i<(sizeof(Stack_reg)/sizeof(Stack_reg[0])); i++)
 80039e4:	461c      	mov	r4, r3
	{
		Uart1_Printf("%s[%d],%s=0x%.8X\n", stack, i, Stack_reg[i], sp[i]);
 80039e6:	f857 2023 	ldr.w	r2, [r7, r3, lsl #2]
 80039ea:	f24a 60a0 	movw	r0, #42656	; 0xa6a0
 80039ee:	f855 3f04 	ldr.w	r3, [r5, #4]!
 80039f2:	9200      	str	r2, [sp, #0]
 80039f4:	f6c0 0000 	movt	r0, #2048	; 0x800
 80039f8:	4622      	mov	r2, r4
 80039fa:	4631      	mov	r1, r6

static void Stack_Dump(const char * stack, unsigned int * sp)
{
	int i;

	for(i=0; i<(sizeof(Stack_reg)/sizeof(Stack_reg[0])); i++)
 80039fc:	3401      	adds	r4, #1
	{
		Uart1_Printf("%s[%d],%s=0x%.8X\n", stack, i, Stack_reg[i], sp[i]);
 80039fe:	f000 fc3b 	bl	8004278 <Uart1_Printf>

static void Stack_Dump(const char * stack, unsigned int * sp)
{
	int i;

	for(i=0; i<(sizeof(Stack_reg)/sizeof(Stack_reg[0])); i++)
 8003a02:	2c08      	cmp	r4, #8
 8003a04:	4623      	mov	r3, r4
 8003a06:	d1ee      	bne.n	80039e6 <Stack_Dump+0xe>
	{
		Uart1_Printf("%s[%d],%s=0x%.8X\n", stack, i, Stack_reg[i], sp[i]);
	}
}
 8003a08:	b003      	add	sp, #12
 8003a0a:	bdf0      	pop	{r4, r5, r6, r7, pc}
 8003a0c:	0800a44c 	stmdaeq	r0, {r2, r3, r6, sl, sp, pc}

08003a10 <Invalid_ISR>:
/* Includes ------------------------------------------------------------------*/

#include "device_driver.h"

void Invalid_ISR(void)
{
 8003a10:	b508      	push	{r3, lr}
  Uart1_Printf("Invalid_Exception: %d!\n", Macro_Extract_Area(SCB->ICSR, 0x1ff, 0));
 8003a12:	f44f 446d 	mov.w	r4, #60672	; 0xed00
 8003a16:	f2ce 0400 	movt	r4, #57344	; 0xe000
 8003a1a:	6861      	ldr	r1, [r4, #4]
 8003a1c:	f24a 60b4 	movw	r0, #42676	; 0xa6b4
 8003a20:	f3c1 0108 	ubfx	r1, r1, #0, #9
 8003a24:	f6c0 0000 	movt	r0, #2048	; 0x800
 8003a28:	f000 fc26 	bl	8004278 <Uart1_Printf>
  Uart1_Printf("Invalid_ISR: %d!\n", Macro_Extract_Area(SCB->ICSR, 0x1ff, 0) - 16);
 8003a2c:	6861      	ldr	r1, [r4, #4]
 8003a2e:	f24a 60cc 	movw	r0, #42700	; 0xa6cc
 8003a32:	f3c1 0108 	ubfx	r1, r1, #0, #9
 8003a36:	3910      	subs	r1, #16
 8003a38:	f6c0 0000 	movt	r0, #2048	; 0x800
 8003a3c:	f000 fc1c 	bl	8004278 <Uart1_Printf>
 8003a40:	e7fe      	b.n	8003a40 <Invalid_ISR+0x30>
 8003a42:	bf00      	nop

08003a44 <NMI_Handler>:
 * Output         : None
 * Return         : None
 *******************************************************************************/
void NMI_Handler(void)
{
	Uart1_Printf("NMI!\n");
 8003a44:	f24a 60e0 	movw	r0, #42720	; 0xa6e0
 * Input          : None
 * Output         : None
 * Return         : None
 *******************************************************************************/
void NMI_Handler(void)
{
 8003a48:	b508      	push	{r3, lr}
	Uart1_Printf("NMI!\n");
 8003a4a:	f6c0 0000 	movt	r0, #2048	; 0x800
 8003a4e:	f000 fc13 	bl	8004278 <Uart1_Printf>
 8003a52:	e7fe      	b.n	8003a52 <NMI_Handler+0xe>

08003a54 <HardFault_Handler>:
 * Input          : None
 * Output         : None
 * Return         : None
 *******************************************************************************/
void HardFault_Handler(unsigned int * msp, unsigned int lr, unsigned int * psp)
{
 8003a54:	4604      	mov	r4, r0
	Uart1_Printf("Hard Fault!\n");
 8003a56:	f24a 60e8 	movw	r0, #42728	; 0xa6e8
 * Input          : None
 * Output         : None
 * Return         : None
 *******************************************************************************/
void HardFault_Handler(unsigned int * msp, unsigned int lr, unsigned int * psp)
{
 8003a5a:	b508      	push	{r3, lr}
	Uart1_Printf("Hard Fault!\n");
 8003a5c:	f6c0 0000 	movt	r0, #2048	; 0x800
 * Input          : None
 * Output         : None
 * Return         : None
 *******************************************************************************/
void HardFault_Handler(unsigned int * msp, unsigned int lr, unsigned int * psp)
{
 8003a60:	4616      	mov	r6, r2
 8003a62:	460d      	mov	r5, r1
	Uart1_Printf("Hard Fault!\n");
 8003a64:	f000 fc08 	bl	8004278 <Uart1_Printf>
	}
}

static void Fault_Report(unsigned int * msp, unsigned int lr, unsigned int * psp)
{
	Uart1_Printf("LR(EXC_RETURN)=0x%.8X\n", lr);
 8003a68:	f24a 60f8 	movw	r0, #42744	; 0xa6f8
 8003a6c:	4629      	mov	r1, r5
 8003a6e:	f6c0 0000 	movt	r0, #2048	; 0x800
 8003a72:	f000 fc01 	bl	8004278 <Uart1_Printf>
	Uart1_Printf("MSP=0x%.8X\n", msp);
 8003a76:	f24a 7010 	movw	r0, #42768	; 0xa710
 8003a7a:	4621      	mov	r1, r4
 8003a7c:	f6c0 0000 	movt	r0, #2048	; 0x800
 8003a80:	f000 fbfa 	bl	8004278 <Uart1_Printf>
	Uart1_Printf("PSP=0x%.8X\n", psp);
 8003a84:	f24a 701c 	movw	r0, #42780	; 0xa71c
 8003a88:	4631      	mov	r1, r6
 8003a8a:	f6c0 0000 	movt	r0, #2048	; 0x800
 8003a8e:	f000 fbf3 	bl	8004278 <Uart1_Printf>

	switch((lr & (0xF<<28))|(lr & 0xF))
 8003a92:	230f      	movs	r3, #15
 8003a94:	f2cf 0300 	movt	r3, #61440	; 0xf000
 8003a98:	2209      	movs	r2, #9
 8003a9a:	402b      	ands	r3, r5
 8003a9c:	f2cf 0200 	movt	r2, #61440	; 0xf000
 8003aa0:	4293      	cmp	r3, r2
 8003aa2:	d050      	beq.n	8003b46 <HardFault_Handler+0xf2>
 8003aa4:	220d      	movs	r2, #13
 8003aa6:	f2cf 0200 	movt	r2, #61440	; 0xf000
 8003aaa:	4293      	cmp	r3, r2
 8003aac:	d059      	beq.n	8003b62 <HardFault_Handler+0x10e>
 8003aae:	2201      	movs	r2, #1
 8003ab0:	f2cf 0200 	movt	r2, #61440	; 0xf000
 8003ab4:	4293      	cmp	r3, r2
	{
		case 0xF0000001: Uart1_Printf("Exception occurs from handler mode\n"); Stack_Dump("MSP", msp); break;
 8003ab6:	bf04      	itt	eq
 8003ab8:	f24a 7028 	movweq	r0, #42792	; 0xa728
 8003abc:	f6c0 0000 	movteq	r0, #2048	; 0x800
{
	Uart1_Printf("LR(EXC_RETURN)=0x%.8X\n", lr);
	Uart1_Printf("MSP=0x%.8X\n", msp);
	Uart1_Printf("PSP=0x%.8X\n", psp);

	switch((lr & (0xF<<28))|(lr & 0xF))
 8003ac0:	d045      	beq.n	8003b4e <HardFault_Handler+0xfa>
	{
		case 0xF0000001: Uart1_Printf("Exception occurs from handler mode\n"); Stack_Dump("MSP", msp); break;
		case 0xF0000009: Uart1_Printf("Exception occurs from thread mode with MSP\n"); Stack_Dump("MSP", msp); break;
		case 0xF000000d: Uart1_Printf("Exception occurs from thread mode with PSP\n"); Stack_Dump("PSP", psp); break;
		default: Uart1_Printf("Invalid exception return value => %#.8X\n", lr & 0xf); break;
 8003ac2:	f24a 70ac 	movw	r0, #42924	; 0xa7ac
 8003ac6:	f005 010f 	and.w	r1, r5, #15
 8003aca:	f6c0 0000 	movt	r0, #2048	; 0x800
 8003ace:	f000 fbd3 	bl	8004278 <Uart1_Printf>
	}

	Uart1_Printf("SHCSR => %#.8X\n", SCB->SHCSR);
 8003ad2:	f44f 446d 	mov.w	r4, #60672	; 0xed00
 8003ad6:	f2ce 0400 	movt	r4, #57344	; 0xe000
 8003ada:	f24a 70d8 	movw	r0, #42968	; 0xa7d8
 8003ade:	6a61      	ldr	r1, [r4, #36]	; 0x24
 8003ae0:	f6c0 0000 	movt	r0, #2048	; 0x800
 8003ae4:	f000 fbc8 	bl	8004278 <Uart1_Printf>
	Uart1_Printf("CFSR(Fault Reason) => %#.8X\n", SCB->CFSR);
 8003ae8:	f24a 70e8 	movw	r0, #42984	; 0xa7e8
 8003aec:	6aa1      	ldr	r1, [r4, #40]	; 0x28
 8003aee:	f6c0 0000 	movt	r0, #2048	; 0x800
 8003af2:	f000 fbc1 	bl	8004278 <Uart1_Printf>
{
	Uart1_Printf("Hard Fault!\n");

	Fault_Report(msp, lr, psp);

	Uart1_Printf("MMFAR Valid => %d\n", Macro_Check_Bit_Set(SCB->CFSR, 7));
 8003af6:	6aa1      	ldr	r1, [r4, #40]	; 0x28
 8003af8:	f64a 0008 	movw	r0, #43016	; 0xa808
 8003afc:	f3c1 11c0 	ubfx	r1, r1, #7, #1
 8003b00:	f6c0 0000 	movt	r0, #2048	; 0x800
 8003b04:	f000 fbb8 	bl	8004278 <Uart1_Printf>
	Uart1_Printf("MMFAR => %#.8X\n", SCB->MMFAR);
 8003b08:	f64a 001c 	movw	r0, #43036	; 0xa81c
 8003b0c:	6b61      	ldr	r1, [r4, #52]	; 0x34
 8003b0e:	f6c0 0000 	movt	r0, #2048	; 0x800
 8003b12:	f000 fbb1 	bl	8004278 <Uart1_Printf>
	Uart1_Printf("BFAR Valid => %d\n", Macro_Check_Bit_Set(SCB->CFSR, 15));
 8003b16:	6aa1      	ldr	r1, [r4, #40]	; 0x28
 8003b18:	f64a 002c 	movw	r0, #43052	; 0xa82c
 8003b1c:	f3c1 31c0 	ubfx	r1, r1, #15, #1
 8003b20:	f6c0 0000 	movt	r0, #2048	; 0x800
 8003b24:	f000 fba8 	bl	8004278 <Uart1_Printf>
	Uart1_Printf("BFAR => %#.8X\n", SCB->BFAR);
 8003b28:	f64a 0040 	movw	r0, #43072	; 0xa840
 8003b2c:	6ba1      	ldr	r1, [r4, #56]	; 0x38
 8003b2e:	f6c0 0000 	movt	r0, #2048	; 0x800
 8003b32:	f000 fba1 	bl	8004278 <Uart1_Printf>
	Uart1_Printf("HFSR(Hard Fault Reason) => %#.8X\n", SCB->HFSR);
 8003b36:	f64a 0050 	movw	r0, #43088	; 0xa850
 8003b3a:	6ae1      	ldr	r1, [r4, #44]	; 0x2c
 8003b3c:	f6c0 0000 	movt	r0, #2048	; 0x800
 8003b40:	f000 fb9a 	bl	8004278 <Uart1_Printf>
 8003b44:	e7fe      	b.n	8003b44 <HardFault_Handler+0xf0>
	Uart1_Printf("PSP=0x%.8X\n", psp);

	switch((lr & (0xF<<28))|(lr & 0xF))
	{
		case 0xF0000001: Uart1_Printf("Exception occurs from handler mode\n"); Stack_Dump("MSP", msp); break;
		case 0xF0000009: Uart1_Printf("Exception occurs from thread mode with MSP\n"); Stack_Dump("MSP", msp); break;
 8003b46:	f24a 7050 	movw	r0, #42832	; 0xa750
 8003b4a:	f6c0 0000 	movt	r0, #2048	; 0x800
 8003b4e:	f000 fb93 	bl	8004278 <Uart1_Printf>
 8003b52:	f24a 704c 	movw	r0, #42828	; 0xa74c
 8003b56:	4621      	mov	r1, r4
 8003b58:	f6c0 0000 	movt	r0, #2048	; 0x800
 8003b5c:	f7ff ff3c 	bl	80039d8 <Stack_Dump>
 8003b60:	e7b7      	b.n	8003ad2 <HardFault_Handler+0x7e>
		case 0xF000000d: Uart1_Printf("Exception occurs from thread mode with PSP\n"); Stack_Dump("PSP", psp); break;
 8003b62:	f24a 707c 	movw	r0, #42876	; 0xa77c
 8003b66:	f6c0 0000 	movt	r0, #2048	; 0x800
 8003b6a:	f000 fb85 	bl	8004278 <Uart1_Printf>
 8003b6e:	f24a 70a8 	movw	r0, #42920	; 0xa7a8
 8003b72:	4631      	mov	r1, r6
 8003b74:	f6c0 0000 	movt	r0, #2048	; 0x800
 8003b78:	f7ff ff2e 	bl	80039d8 <Stack_Dump>
 8003b7c:	e7a9      	b.n	8003ad2 <HardFault_Handler+0x7e>
 8003b7e:	bf00      	nop

08003b80 <MemManage_Handler>:
 * Output         : None
 * Return         : None
 *******************************************************************************/
void MemManage_Handler(unsigned int * msp, unsigned int lr, unsigned int * psp)
{
	Uart1_Printf("Memory Management Fault!\n");
 8003b80:	f64a 0074 	movw	r0, #43124	; 0xa874
 * Input          : None
 * Output         : None
 * Return         : None
 *******************************************************************************/
void MemManage_Handler(unsigned int * msp, unsigned int lr, unsigned int * psp)
{
 8003b84:	b508      	push	{r3, lr}
	Uart1_Printf("Memory Management Fault!\n");
 8003b86:	f6c0 0000 	movt	r0, #2048	; 0x800
 8003b8a:	f000 fb75 	bl	8004278 <Uart1_Printf>
 8003b8e:	e7fe      	b.n	8003b8e <MemManage_Handler+0xe>

08003b90 <BusFault_Handler>:
 * Output         : None
 * Return         : None
 *******************************************************************************/
void BusFault_Handler(unsigned int * msp, unsigned int lr, unsigned int * psp)
{
	Uart1_Printf("Bus Fault!\n");
 8003b90:	f64a 0090 	movw	r0, #43152	; 0xa890
 * Input          : None
 * Output         : None
 * Return         : None
 *******************************************************************************/
void BusFault_Handler(unsigned int * msp, unsigned int lr, unsigned int * psp)
{
 8003b94:	b508      	push	{r3, lr}
	Uart1_Printf("Bus Fault!\n");
 8003b96:	f6c0 0000 	movt	r0, #2048	; 0x800
 8003b9a:	f000 fb6d 	bl	8004278 <Uart1_Printf>
 8003b9e:	e7fe      	b.n	8003b9e <BusFault_Handler+0xe>

08003ba0 <UsageFault_Handler>:
 * Output         : None
 * Return         : None
 *******************************************************************************/
void UsageFault_Handler(unsigned int * msp, unsigned int lr, unsigned int * psp)
{
	Uart1_Printf("Usage Fault!\n");
 8003ba0:	f64a 009c 	movw	r0, #43164	; 0xa89c
 * Input          : None
 * Output         : None
 * Return         : None
 *******************************************************************************/
void UsageFault_Handler(unsigned int * msp, unsigned int lr, unsigned int * psp)
{
 8003ba4:	b508      	push	{r3, lr}
	Uart1_Printf("Usage Fault!\n");
 8003ba6:	f6c0 0000 	movt	r0, #2048	; 0x800
 8003baa:	f000 fb65 	bl	8004278 <Uart1_Printf>
 8003bae:	e7fe      	b.n	8003bae <UsageFault_Handler+0xe>

08003bb0 <SVC_Handler>:
 * Output         : None
 * Return         : None
 *******************************************************************************/
void SVC_Handler(void)
{
	Uart1_Printf("SVC Call\n");
 8003bb0:	f64a 00ac 	movw	r0, #43180	; 0xa8ac
 * Input          : None
 * Output         : None
 * Return         : None
 *******************************************************************************/
void SVC_Handler(void)
{
 8003bb4:	b508      	push	{r3, lr}
	Uart1_Printf("SVC Call\n");
 8003bb6:	f6c0 0000 	movt	r0, #2048	; 0x800
 8003bba:	f000 fb5d 	bl	8004278 <Uart1_Printf>
 8003bbe:	e7fe      	b.n	8003bbe <SVC_Handler+0xe>

08003bc0 <DebugMon_Handler>:
 * Output         : None
 * Return         : None
 *******************************************************************************/
void DebugMon_Handler(void)
{
	Uart1_Printf("DebugMon Call\n");
 8003bc0:	f64a 00b8 	movw	r0, #43192	; 0xa8b8
 * Input          : None
 * Output         : None
 * Return         : None
 *******************************************************************************/
void DebugMon_Handler(void)
{
 8003bc4:	b508      	push	{r3, lr}
	Uart1_Printf("DebugMon Call\n");
 8003bc6:	f6c0 0000 	movt	r0, #2048	; 0x800
 8003bca:	f000 fb55 	bl	8004278 <Uart1_Printf>
 8003bce:	e7fe      	b.n	8003bce <DebugMon_Handler+0xe>

08003bd0 <PendSV_Handler>:
 * Output         : None
 * Return         : None
 *******************************************************************************/
void PendSV_Handler(void)
{
	Uart1_Printf("PendSV Call\n");
 8003bd0:	f64a 00c8 	movw	r0, #43208	; 0xa8c8
 * Input          : None
 * Output         : None
 * Return         : None
 *******************************************************************************/
void PendSV_Handler(void)
{
 8003bd4:	b508      	push	{r3, lr}
	Uart1_Printf("PendSV Call\n");
 8003bd6:	f6c0 0000 	movt	r0, #2048	; 0x800
 8003bda:	f000 fb4d 	bl	8004278 <Uart1_Printf>
 8003bde:	e7fe      	b.n	8003bde <PendSV_Handler+0xe>

08003be0 <SysTick_Handler>:
 *******************************************************************************/
volatile int SysTick_Flag = 0;

void SysTick_Handler(void)
{
	SysTick_Flag = 1;
 8003be0:	f240 538c 	movw	r3, #1420	; 0x58c
 8003be4:	f2c2 0300 	movt	r3, #8192	; 0x2000
 8003be8:	2201      	movs	r2, #1
 8003bea:	601a      	str	r2, [r3, #0]
 8003bec:	4770      	bx	lr
 8003bee:	bf00      	nop

08003bf0 <WWDG_IRQHandler>:
 * Input          : None
 * Output         : None
 * Return         : None
 *******************************************************************************/
void WWDG_IRQHandler(void)
{
 8003bf0:	b508      	push	{r3, lr}
  Invalid_ISR();
 8003bf2:	f7ff ff0d 	bl	8003a10 <Invalid_ISR>
 8003bf6:	bf00      	nop

08003bf8 <PVD_IRQHandler>:
 * Input          : None
 * Output         : None
 * Return         : None
 *******************************************************************************/
void PVD_IRQHandler(void)
{
 8003bf8:	b508      	push	{r3, lr}
  Invalid_ISR();
 8003bfa:	f7ff ff09 	bl	8003a10 <Invalid_ISR>
 8003bfe:	bf00      	nop

08003c00 <TAMPER_IRQHandler>:
 * Input          : None
 * Output         : None
 * Return         : None
 *******************************************************************************/
void TAMPER_IRQHandler(void)
{
 8003c00:	b508      	push	{r3, lr}
  Invalid_ISR();
 8003c02:	f7ff ff05 	bl	8003a10 <Invalid_ISR>
 8003c06:	bf00      	nop

08003c08 <RTC_IRQHandler>:
 * Input          : None
 * Output         : None
 * Return         : None
 *******************************************************************************/
void RTC_IRQHandler(void)
{
 8003c08:	b508      	push	{r3, lr}
  Invalid_ISR();
 8003c0a:	f7ff ff01 	bl	8003a10 <Invalid_ISR>
 8003c0e:	bf00      	nop

08003c10 <FLASH_IRQHandler>:
 * Input          : None
 * Output         : None
 * Return         : None
 *******************************************************************************/
void FLASH_IRQHandler(void)
{
 8003c10:	b508      	push	{r3, lr}
  Invalid_ISR();
 8003c12:	f7ff fefd 	bl	8003a10 <Invalid_ISR>
 8003c16:	bf00      	nop

08003c18 <RCC_IRQHandler>:
 * Input          : None
 * Output         : None
 * Return         : None
 *******************************************************************************/
void RCC_IRQHandler(void)
{
 8003c18:	b508      	push	{r3, lr}
  Invalid_ISR();
 8003c1a:	f7ff fef9 	bl	8003a10 <Invalid_ISR>
 8003c1e:	bf00      	nop

08003c20 <EXTI0_IRQHandler>:
 * Input          : None
 * Output         : None
 * Return         : None
 *******************************************************************************/
void EXTI0_IRQHandler(void)
{
 8003c20:	b508      	push	{r3, lr}
  Invalid_ISR();
 8003c22:	f7ff fef5 	bl	8003a10 <Invalid_ISR>
 8003c26:	bf00      	nop

08003c28 <EXTI1_IRQHandler>:
 * Input          : None
 * Output         : None
 * Return         : None
 *******************************************************************************/
void EXTI1_IRQHandler(void)
{
 8003c28:	b508      	push	{r3, lr}
  Invalid_ISR();
 8003c2a:	f7ff fef1 	bl	8003a10 <Invalid_ISR>
 8003c2e:	bf00      	nop

08003c30 <EXTI2_IRQHandler>:
 * Input          : None
 * Output         : None
 * Return         : None
 *******************************************************************************/
void EXTI2_IRQHandler(void)
{
 8003c30:	b508      	push	{r3, lr}
  Invalid_ISR();
 8003c32:	f7ff feed 	bl	8003a10 <Invalid_ISR>
 8003c36:	bf00      	nop

08003c38 <EXTI3_IRQHandler>:
 * Input          : None
 * Output         : None
 * Return         : None
 *******************************************************************************/
void EXTI3_IRQHandler(void)
{
 8003c38:	b508      	push	{r3, lr}
  Invalid_ISR();
 8003c3a:	f7ff fee9 	bl	8003a10 <Invalid_ISR>
 8003c3e:	bf00      	nop

08003c40 <EXTI4_IRQHandler>:
 * Input          : None
 * Output         : None
 * Return         : None
 *******************************************************************************/
void EXTI4_IRQHandler(void)
{
 8003c40:	b508      	push	{r3, lr}
  Invalid_ISR();
 8003c42:	f7ff fee5 	bl	8003a10 <Invalid_ISR>
 8003c46:	bf00      	nop

08003c48 <DMA1_Channel1_IRQHandler>:
 * Input          : None
 * Output         : None
 * Return         : None
 *******************************************************************************/
void DMA1_Channel1_IRQHandler(void)
{
 8003c48:	b508      	push	{r3, lr}
  Invalid_ISR();
 8003c4a:	f7ff fee1 	bl	8003a10 <Invalid_ISR>
 8003c4e:	bf00      	nop

08003c50 <DMA1_Channel2_IRQHandler>:
 * Input          : None
 * Output         : None
 * Return         : None
 *******************************************************************************/
void DMA1_Channel2_IRQHandler(void)
{
 8003c50:	b508      	push	{r3, lr}
  Invalid_ISR();
 8003c52:	f7ff fedd 	bl	8003a10 <Invalid_ISR>
 8003c56:	bf00      	nop

08003c58 <DMA1_Channel3_IRQHandler>:
 * Input          : None
 * Output         : None
 * Return         : None
 *******************************************************************************/
void DMA1_Channel3_IRQHandler(void)
{
 8003c58:	b508      	push	{r3, lr}
  Invalid_ISR();
 8003c5a:	f7ff fed9 	bl	8003a10 <Invalid_ISR>
 8003c5e:	bf00      	nop

08003c60 <DMA1_Channel4_IRQHandler>:
 * Input          : None
 * Output         : None
 * Return         : None
 *******************************************************************************/
void DMA1_Channel4_IRQHandler(void)
{
 8003c60:	b508      	push	{r3, lr}
  Invalid_ISR();
 8003c62:	f7ff fed5 	bl	8003a10 <Invalid_ISR>
 8003c66:	bf00      	nop

08003c68 <DMA1_Channel5_IRQHandler>:
 * Input          : None
 * Output         : None
 * Return         : None
 *******************************************************************************/
void DMA1_Channel5_IRQHandler(void)
{
 8003c68:	b508      	push	{r3, lr}
  Invalid_ISR();
 8003c6a:	f7ff fed1 	bl	8003a10 <Invalid_ISR>
 8003c6e:	bf00      	nop

08003c70 <DMA1_Channel6_IRQHandler>:
 * Input          : None
 * Output         : None
 * Return         : None
 *******************************************************************************/
void DMA1_Channel6_IRQHandler(void)
{
 8003c70:	b508      	push	{r3, lr}
  Invalid_ISR();
 8003c72:	f7ff fecd 	bl	8003a10 <Invalid_ISR>
 8003c76:	bf00      	nop

08003c78 <DMA1_Channel7_IRQHandler>:
 * Input          : None
 * Output         : None
 * Return         : None
 *******************************************************************************/
void DMA1_Channel7_IRQHandler(void)
{
 8003c78:	b508      	push	{r3, lr}
  Invalid_ISR();
 8003c7a:	f7ff fec9 	bl	8003a10 <Invalid_ISR>
 8003c7e:	bf00      	nop

08003c80 <ADC1_2_IRQHandler>:
 * Input          : None
 * Output         : None
 * Return         : None
 *******************************************************************************/
void ADC1_2_IRQHandler(void)
{
 8003c80:	b508      	push	{r3, lr}
  Invalid_ISR();
 8003c82:	f7ff fec5 	bl	8003a10 <Invalid_ISR>
 8003c86:	bf00      	nop

08003c88 <USB_HP_CAN_TX_IRQHandler>:
 * Input          : None
 * Output         : None
 * Return         : None
 *******************************************************************************/
void USB_HP_CAN_TX_IRQHandler(void)
{
 8003c88:	b508      	push	{r3, lr}
  Invalid_ISR();
 8003c8a:	f7ff fec1 	bl	8003a10 <Invalid_ISR>
 8003c8e:	bf00      	nop

08003c90 <USB_LP_CAN_RX0_IRQHandler>:
 * Input          : None
 * Output         : None
 * Return         : None
 *******************************************************************************/
void USB_LP_CAN_RX0_IRQHandler(void)
{
 8003c90:	b508      	push	{r3, lr}
  Invalid_ISR();
 8003c92:	f7ff febd 	bl	8003a10 <Invalid_ISR>
 8003c96:	bf00      	nop

08003c98 <CAN_RX1_IRQHandler>:
 * Input          : None
 * Output         : None
 * Return         : None
 *******************************************************************************/
void CAN_RX1_IRQHandler(void)
{
 8003c98:	b508      	push	{r3, lr}
  Invalid_ISR();
 8003c9a:	f7ff feb9 	bl	8003a10 <Invalid_ISR>
 8003c9e:	bf00      	nop

08003ca0 <CAN_SCE_IRQHandler>:
 * Input          : None
 * Output         : None
 * Return         : None
 *******************************************************************************/
void CAN_SCE_IRQHandler(void)
{
 8003ca0:	b508      	push	{r3, lr}
  Invalid_ISR();
 8003ca2:	f7ff feb5 	bl	8003a10 <Invalid_ISR>
 8003ca6:	bf00      	nop

08003ca8 <EXTI9_5_IRQHandler>:
 * Return         : None
 *******************************************************************************/
volatile int Key_Value = 0;

void EXTI9_5_IRQHandler(void)
{
 8003ca8:	b430      	push	{r4, r5}
	Key_Value = Macro_Extract_Area(EXTI->PR, 0x3, 6);
 8003caa:	f44f 6380 	mov.w	r3, #1024	; 0x400
 8003cae:	f2c4 0301 	movt	r3, #16385	; 0x4001
 8003cb2:	695d      	ldr	r5, [r3, #20]
 8003cb4:	f240 528c 	movw	r2, #1420	; 0x58c
 * Clear the pending bit for the specified interrupt. 
 * The interrupt number cannot be a negative value.
 */
static __INLINE void NVIC_ClearPendingIRQ(IRQn_Type IRQn)
{
  NVIC->ICPR[((uint32_t)(IRQn) >> 5)] = (1 << ((uint32_t)(IRQn) & 0x1F)); /* Clear pending interrupt */
 8003cb8:	f44f 4161 	mov.w	r1, #57600	; 0xe100
 8003cbc:	f3c5 1581 	ubfx	r5, r5, #6, #2

	EXTI->PR = 0x3<<6;
 8003cc0:	24c0      	movs	r4, #192	; 0xc0
 *******************************************************************************/
volatile int Key_Value = 0;

void EXTI9_5_IRQHandler(void)
{
	Key_Value = Macro_Extract_Area(EXTI->PR, 0x3, 6);
 8003cc2:	f2c2 0200 	movt	r2, #8192	; 0x2000
 8003cc6:	f2ce 0100 	movt	r1, #57344	; 0xe000
 8003cca:	f44f 0000 	mov.w	r0, #8388608	; 0x800000
 8003cce:	6055      	str	r5, [r2, #4]

	EXTI->PR = 0x3<<6;
 8003cd0:	615c      	str	r4, [r3, #20]
 8003cd2:	f8c1 0180 	str.w	r0, [r1, #384]	; 0x180
	NVIC_ClearPendingIRQ(23);
}
 8003cd6:	bc30      	pop	{r4, r5}
 8003cd8:	4770      	bx	lr
 8003cda:	bf00      	nop

08003cdc <TIM1_BRK_IRQHandler>:
 * Input          : None
 * Output         : None
 * Return         : None
 *******************************************************************************/
void TIM1_BRK_IRQHandler(void)
{
 8003cdc:	b508      	push	{r3, lr}
  Invalid_ISR();
 8003cde:	f7ff fe97 	bl	8003a10 <Invalid_ISR>
 8003ce2:	bf00      	nop

08003ce4 <TIM1_UP_IRQHandler>:
 * Input          : None
 * Output         : None
 * Return         : None
 *******************************************************************************/
void TIM1_UP_IRQHandler(void)
{
 8003ce4:	b508      	push	{r3, lr}
  Invalid_ISR();
 8003ce6:	f7ff fe93 	bl	8003a10 <Invalid_ISR>
 8003cea:	bf00      	nop

08003cec <TIM1_TRG_COM_IRQHandler>:
 * Input          : None
 * Output         : None
 * Return         : None
 *******************************************************************************/
void TIM1_TRG_COM_IRQHandler(void)
{
 8003cec:	b508      	push	{r3, lr}
  Invalid_ISR();
 8003cee:	f7ff fe8f 	bl	8003a10 <Invalid_ISR>
 8003cf2:	bf00      	nop

08003cf4 <TIM1_CC_IRQHandler>:
 * Input          : None
 * Output         : None
 * Return         : None
 *******************************************************************************/
void TIM1_CC_IRQHandler(void)
{
 8003cf4:	b508      	push	{r3, lr}
  Invalid_ISR();
 8003cf6:	f7ff fe8b 	bl	8003a10 <Invalid_ISR>
 8003cfa:	bf00      	nop

08003cfc <TIM2_IRQHandler>:
 * Input          : None
 * Output         : None
 * Return         : None
 *******************************************************************************/
void TIM2_IRQHandler(void)
{
 8003cfc:	b508      	push	{r3, lr}
  Invalid_ISR();
 8003cfe:	f7ff fe87 	bl	8003a10 <Invalid_ISR>
 8003d02:	bf00      	nop

08003d04 <TIM3_IRQHandler>:
 * Input          : None
 * Output         : None
 * Return         : None
 *******************************************************************************/
void TIM3_IRQHandler(void)
{
 8003d04:	b508      	push	{r3, lr}
  Invalid_ISR();
 8003d06:	f7ff fe83 	bl	8003a10 <Invalid_ISR>
 8003d0a:	bf00      	nop

08003d0c <TIM4_IRQHandler>:
 * Input          : None
 * Output         : None
 * Return         : None
 *******************************************************************************/
void TIM4_IRQHandler(void)
{
 8003d0c:	b508      	push	{r3, lr}
  Invalid_ISR();
 8003d0e:	f7ff fe7f 	bl	8003a10 <Invalid_ISR>
 8003d12:	bf00      	nop

08003d14 <I2C1_EV_IRQHandler>:
 * Input          : None
 * Output         : None
 * Return         : None
 *******************************************************************************/
void I2C1_EV_IRQHandler(void)
{
 8003d14:	b508      	push	{r3, lr}
  Invalid_ISR();
 8003d16:	f7ff fe7b 	bl	8003a10 <Invalid_ISR>
 8003d1a:	bf00      	nop

08003d1c <I2C1_ER_IRQHandler>:
 * Input          : None
 * Output         : None
 * Return         : None
 *******************************************************************************/
void I2C1_ER_IRQHandler(void)
{
 8003d1c:	b508      	push	{r3, lr}
  Invalid_ISR();
 8003d1e:	f7ff fe77 	bl	8003a10 <Invalid_ISR>
 8003d22:	bf00      	nop

08003d24 <I2C2_EV_IRQHandler>:
 * Input          : None
 * Output         : None
 * Return         : None
 *******************************************************************************/
void I2C2_EV_IRQHandler(void)
{
 8003d24:	b508      	push	{r3, lr}
  Invalid_ISR();
 8003d26:	f7ff fe73 	bl	8003a10 <Invalid_ISR>
 8003d2a:	bf00      	nop

08003d2c <I2C2_ER_IRQHandler>:
 * Input          : None
 * Output         : None
 * Return         : None
 *******************************************************************************/
void I2C2_ER_IRQHandler(void)
{
 8003d2c:	b508      	push	{r3, lr}
  Invalid_ISR();
 8003d2e:	f7ff fe6f 	bl	8003a10 <Invalid_ISR>
 8003d32:	bf00      	nop

08003d34 <SPI1_IRQHandler>:
 * Input          : None
 * Output         : None
 * Return         : None
 *******************************************************************************/
void SPI1_IRQHandler(void)
{
 8003d34:	b508      	push	{r3, lr}
  Invalid_ISR();
 8003d36:	f7ff fe6b 	bl	8003a10 <Invalid_ISR>
 8003d3a:	bf00      	nop

08003d3c <SPI2_IRQHandler>:
 * Input          : None
 * Output         : None
 * Return         : None
 *******************************************************************************/
void SPI2_IRQHandler(void)
{
 8003d3c:	b508      	push	{r3, lr}
  Invalid_ISR();
 8003d3e:	f7ff fe67 	bl	8003a10 <Invalid_ISR>
 8003d42:	bf00      	nop

08003d44 <USART1_IRQHandler>:
 *******************************************************************************/
volatile int Uart1_Rx_In = 0;
volatile int Uart1_Rx_Data = 0;

void USART1_IRQHandler(void)
{
 8003d44:	b410      	push	{r4}
	// Data read from USART1->DR
  Uart1_Rx_Data = USART1->DR;
 8003d46:	f44f 5360 	mov.w	r3, #14336	; 0x3800
 8003d4a:	f2c4 0301 	movt	r3, #16385	; 0x4001
 8003d4e:	889c      	ldrh	r4, [r3, #4]
 8003d50:	f44f 4261 	mov.w	r2, #57600	; 0xe100
 8003d54:	f240 538c 	movw	r3, #1420	; 0x58c
 8003d58:	b2a4      	uxth	r4, r4
 8003d5a:	f2c2 0300 	movt	r3, #8192	; 0x2000
 8003d5e:	f2ce 0200 	movt	r2, #57344	; 0xe000
 8003d62:	2020      	movs	r0, #32
	// NVIC USART1 pending clear
  NVIC_ClearPendingIRQ(37);
	Uart1_Rx_In = 1;
 8003d64:	2101      	movs	r1, #1
volatile int Uart1_Rx_Data = 0;

void USART1_IRQHandler(void)
{
	// Data read from USART1->DR
  Uart1_Rx_Data = USART1->DR;
 8003d66:	609c      	str	r4, [r3, #8]
 8003d68:	f8c2 0184 	str.w	r0, [r2, #388]	; 0x184
	// NVIC USART1 pending clear
  NVIC_ClearPendingIRQ(37);
	Uart1_Rx_In = 1;
 8003d6c:	60d9      	str	r1, [r3, #12]
}
 8003d6e:	f85d 4b04 	ldr.w	r4, [sp], #4
 8003d72:	4770      	bx	lr

08003d74 <USART2_IRQHandler>:
 * Input          : None
 * Output         : None
 * Return         : None
 *******************************************************************************/
void USART2_IRQHandler(void)
{
 8003d74:	b508      	push	{r3, lr}
  Invalid_ISR();
 8003d76:	f7ff fe4b 	bl	8003a10 <Invalid_ISR>
 8003d7a:	bf00      	nop

08003d7c <USART3_IRQHandler>:
 * Input          : None
 * Output         : None
 * Return         : None
 *******************************************************************************/
void USART3_IRQHandler(void)
{
 8003d7c:	b508      	push	{r3, lr}
  Invalid_ISR();
 8003d7e:	f7ff fe47 	bl	8003a10 <Invalid_ISR>
 8003d82:	bf00      	nop

08003d84 <EXTI15_10_IRQHandler>:
 * Input          : None
 * Output         : None
 * Return         : None
 *******************************************************************************/
void EXTI15_10_IRQHandler(void)
{
 8003d84:	b508      	push	{r3, lr}
  Invalid_ISR();
 8003d86:	f7ff fe43 	bl	8003a10 <Invalid_ISR>
 8003d8a:	bf00      	nop

08003d8c <RTCAlarm_IRQHandler>:
 * Input          : None
 * Output         : None
 * Return         : None
 *******************************************************************************/
void RTCAlarm_IRQHandler(void)
{
 8003d8c:	b508      	push	{r3, lr}
  Invalid_ISR();
 8003d8e:	f7ff fe3f 	bl	8003a10 <Invalid_ISR>
 8003d92:	bf00      	nop

08003d94 <USBWakeUp_IRQHandler>:
 * Input          : None
 * Output         : None
 * Return         : None
 *******************************************************************************/
void USBWakeUp_IRQHandler(void)
{
 8003d94:	b508      	push	{r3, lr}
  Invalid_ISR();
 8003d96:	f7ff fe3b 	bl	8003a10 <Invalid_ISR>
 8003d9a:	bf00      	nop
 8003d9c:	0000      	movs	r0, r0
	...

08003da0 <SysTick_Run>:
#include "device_driver.h"

void SysTick_Run(unsigned int msec)
{
 8003da0:	b538      	push	{r3, r4, r5, lr}
	SysTick->CTRL = (0<<2)+(0<<1)+(0<<0);
 8003da2:	f24e 0410 	movw	r4, #57360	; 0xe010
 8003da6:	f2ce 0400 	movt	r4, #57344	; 0xe000
 8003daa:	2500      	movs	r5, #0
 8003dac:	6025      	str	r5, [r4, #0]
	SysTick->LOAD = (unsigned int)((HCLK/(8.*1000.))*msec+0.5);
 8003dae:	f005 fc83 	bl	80096b8 <__aeabi_ui2d>
 8003db2:	a30b      	add	r3, pc, #44	; (adr r3, 8003de0 <SysTick_Run+0x40>)
 8003db4:	e9d3 2300 	ldrd	r2, r3, [r3]
 8003db8:	f005 fcf4 	bl	80097a4 <__aeabi_dmul>
 8003dbc:	2300      	movs	r3, #0
 8003dbe:	f6c3 73e0 	movt	r3, #16352	; 0x3fe0
 8003dc2:	2200      	movs	r2, #0
 8003dc4:	f005 fb3c 	bl	8009440 <__adddf3>
 8003dc8:	f005 ffae 	bl	8009d28 <__aeabi_d2uiz>
 8003dcc:	6060      	str	r0, [r4, #4]
	SysTick->VAL = 0;
 8003dce:	60a5      	str	r5, [r4, #8]
	Macro_Set_Bit(SysTick->CTRL, 0);
 8003dd0:	6823      	ldr	r3, [r4, #0]
 8003dd2:	f043 0301 	orr.w	r3, r3, #1
 8003dd6:	6023      	str	r3, [r4, #0]
 8003dd8:	bd38      	pop	{r3, r4, r5, pc}
 8003dda:	bf00      	nop
 8003ddc:	f3af 8000 	nop.w
 8003de0:	00000000 	andeq	r0, r0, r0
 8003de4:	40c19400 	sbcmi	r9, r1, r0, lsl #8

08003de8 <SysTick_Check_Timeout>:
}

int SysTick_Check_Timeout(void)
{
	return ((SysTick->CTRL >> 16) & 0x1);
 8003de8:	f24e 0310 	movw	r3, #57360	; 0xe010
 8003dec:	f2ce 0300 	movt	r3, #57344	; 0xe000
 8003df0:	6818      	ldr	r0, [r3, #0]
}
 8003df2:	f3c0 4000 	ubfx	r0, r0, #16, #1
 8003df6:	4770      	bx	lr

08003df8 <SysTick_Get_Time>:

unsigned int SysTick_Get_Time(void)
{
	return SysTick->VAL;
 8003df8:	f24e 0310 	movw	r3, #57360	; 0xe010
 8003dfc:	f2ce 0300 	movt	r3, #57344	; 0xe000
 8003e00:	6898      	ldr	r0, [r3, #8]
}
 8003e02:	4770      	bx	lr

08003e04 <SysTick_Get_Load_Time>:

unsigned int SysTick_Get_Load_Time(void)
{
	return SysTick->LOAD;
 8003e04:	f24e 0310 	movw	r3, #57360	; 0xe010
 8003e08:	f2ce 0300 	movt	r3, #57344	; 0xe000
 8003e0c:	6858      	ldr	r0, [r3, #4]
}
 8003e0e:	4770      	bx	lr

08003e10 <SysTick_Stop>:

void SysTick_Stop(void)
{
	SysTick->CTRL = 0;
 8003e10:	f24e 0310 	movw	r3, #57360	; 0xe010
 8003e14:	f2ce 0300 	movt	r3, #57344	; 0xe000
 8003e18:	2200      	movs	r2, #0
 8003e1a:	601a      	str	r2, [r3, #0]
 8003e1c:	4770      	bx	lr
 8003e1e:	bf00      	nop

08003e20 <SysTick_OS_Tick>:
}

void SysTick_OS_Tick(unsigned int msec)
{
 8003e20:	b510      	push	{r4, lr}
  SysTick->CTRL = (0<<2)+(1<<1)+(0<<0);
 8003e22:	f24e 0410 	movw	r4, #57360	; 0xe010
 8003e26:	f2ce 0400 	movt	r4, #57344	; 0xe000
 8003e2a:	2302      	movs	r3, #2
 8003e2c:	6023      	str	r3, [r4, #0]
  SysTick->LOAD = (unsigned int)((HCLK/(8.*1000.))*msec+0.5);
 8003e2e:	f005 fc43 	bl	80096b8 <__aeabi_ui2d>
 8003e32:	a30b      	add	r3, pc, #44	; (adr r3, 8003e60 <SysTick_OS_Tick+0x40>)
 8003e34:	e9d3 2300 	ldrd	r2, r3, [r3]
 8003e38:	f005 fcb4 	bl	80097a4 <__aeabi_dmul>
 8003e3c:	2300      	movs	r3, #0
 8003e3e:	f6c3 73e0 	movt	r3, #16352	; 0x3fe0
 8003e42:	2200      	movs	r2, #0
 8003e44:	f005 fafc 	bl	8009440 <__adddf3>
 8003e48:	f005 ff6e 	bl	8009d28 <__aeabi_d2uiz>
  SysTick->VAL = 0;
 8003e4c:	2300      	movs	r3, #0
}

void SysTick_OS_Tick(unsigned int msec)
{
  SysTick->CTRL = (0<<2)+(1<<1)+(0<<0);
  SysTick->LOAD = (unsigned int)((HCLK/(8.*1000.))*msec+0.5);
 8003e4e:	6060      	str	r0, [r4, #4]
  SysTick->VAL = 0;
 8003e50:	60a3      	str	r3, [r4, #8]
  Macro_Set_Bit(SysTick->CTRL, 0);
 8003e52:	6823      	ldr	r3, [r4, #0]
 8003e54:	f043 0301 	orr.w	r3, r3, #1
 8003e58:	6023      	str	r3, [r4, #0]
 8003e5a:	bd10      	pop	{r4, pc}
 8003e5c:	f3af 8000 	nop.w
 8003e60:	00000000 	andeq	r0, r0, r0
 8003e64:	40c19400 	sbcmi	r9, r1, r0, lsl #8

08003e68 <TIM2_Stopwatch_Start>:
#define TIM3_FREQ 	  		(8000000) 	      	// Hz
#define TIM3_TICK	  		(1000000/TIM3_FREQ)	// usec
#define TIME3_PLS_OF_1ms  	(1000/TIM3_TICK)

void TIM2_Stopwatch_Start(void)
{
 8003e68:	b430      	push	{r4, r5}
	Macro_Set_Bit(RCC->APB1ENR, 0);
 8003e6a:	f44f 5280 	mov.w	r2, #4096	; 0x1000
 8003e6e:	f2c4 0202 	movt	r2, #16386	; 0x4002
 8003e72:	69d5      	ldr	r5, [r2, #28]

	TIM2->CR1 = (1<<4)|(1<<3);
 8003e74:	f04f 4380 	mov.w	r3, #1073741824	; 0x40000000
#define TIM3_TICK	  		(1000000/TIM3_FREQ)	// usec
#define TIME3_PLS_OF_1ms  	(1000/TIM3_TICK)

void TIM2_Stopwatch_Start(void)
{
	Macro_Set_Bit(RCC->APB1ENR, 0);
 8003e78:	f045 0501 	orr.w	r5, r5, #1

	TIM2->CR1 = (1<<4)|(1<<3);
 8003e7c:	2418      	movs	r4, #24
	TIM2->PSC = (unsigned int)(TIMXCLK/50000.0 + 0.5)-1;
 8003e7e:	f240 509f 	movw	r0, #1439	; 0x59f
	TIM2->ARR = TIM2_MAX;
 8003e82:	f64f 71ff 	movw	r1, #65535	; 0xffff
#define TIM3_TICK	  		(1000000/TIM3_FREQ)	// usec
#define TIME3_PLS_OF_1ms  	(1000/TIM3_TICK)

void TIM2_Stopwatch_Start(void)
{
	Macro_Set_Bit(RCC->APB1ENR, 0);
 8003e86:	61d5      	str	r5, [r2, #28]

	TIM2->CR1 = (1<<4)|(1<<3);
 8003e88:	801c      	strh	r4, [r3, #0]
	TIM2->PSC = (unsigned int)(TIMXCLK/50000.0 + 0.5)-1;
 8003e8a:	8518      	strh	r0, [r3, #40]	; 0x28
	TIM2->ARR = TIM2_MAX;
 8003e8c:	8599      	strh	r1, [r3, #44]	; 0x2c

	Macro_Set_Bit(TIM2->EGR,0);
 8003e8e:	8a9a      	ldrh	r2, [r3, #20]
 8003e90:	b292      	uxth	r2, r2
 8003e92:	f042 0201 	orr.w	r2, r2, #1
 8003e96:	829a      	strh	r2, [r3, #20]
	Macro_Set_Bit(TIM2->CR1, 0);
 8003e98:	881a      	ldrh	r2, [r3, #0]
 8003e9a:	b292      	uxth	r2, r2
 8003e9c:	f042 0201 	orr.w	r2, r2, #1
 8003ea0:	801a      	strh	r2, [r3, #0]
}
 8003ea2:	bc30      	pop	{r4, r5}
 8003ea4:	4770      	bx	lr
 8003ea6:	bf00      	nop

08003ea8 <TIM2_Stopwatch_Stop>:

unsigned int TIM2_Stopwatch_Stop(void)
{
	unsigned int time;

	Macro_Clear_Bit(TIM2->CR1, 0);
 8003ea8:	f04f 4280 	mov.w	r2, #1073741824	; 0x40000000
 8003eac:	8813      	ldrh	r3, [r2, #0]
	time = (TIM2_MAX - TIM2->CNT) * TIM2_TICK;
 8003eae:	f64f 71ec 	movw	r1, #65516	; 0xffec

unsigned int TIM2_Stopwatch_Stop(void)
{
	unsigned int time;

	Macro_Clear_Bit(TIM2->CR1, 0);
 8003eb2:	f023 0301 	bic.w	r3, r3, #1
 8003eb6:	041b      	lsls	r3, r3, #16
 8003eb8:	0c1b      	lsrs	r3, r3, #16
 8003eba:	8013      	strh	r3, [r2, #0]
	time = (TIM2_MAX - TIM2->CNT) * TIM2_TICK;
 8003ebc:	8c93      	ldrh	r3, [r2, #36]	; 0x24
 8003ebe:	f2c0 0113 	movt	r1, #19
 8003ec2:	b29b      	uxth	r3, r3
 8003ec4:	f06f 0013 	mvn.w	r0, #19
	return time;
}
 8003ec8:	fb00 1003 	mla	r0, r0, r3, r1
 8003ecc:	4770      	bx	lr
 8003ece:	bf00      	nop

08003ed0 <TIM2_Delay>:
#else

/* Delay Time Extended */

void TIM2_Delay(int time)
{
 8003ed0:	b470      	push	{r4, r5, r6}
	int i;
	unsigned int t = TIME2_PLS_OF_1ms * time;

	Macro_Set_Bit(RCC->APB1ENR, 0);
 8003ed2:	f44f 5380 	mov.w	r3, #4096	; 0x1000
 8003ed6:	f2c4 0302 	movt	r3, #16386	; 0x4002
 8003eda:	69de      	ldr	r6, [r3, #28]

	TIM2->PSC = (unsigned int)(TIMXCLK/(double)TIM2_FREQ + 0.5)-1;
 8003edc:	f04f 4280 	mov.w	r2, #1073741824	; 0x40000000
	TIM2->CR1 = (1<<4)|(1<<3);
 8003ee0:	2418      	movs	r4, #24
	TIM2->ARR = 0xffff;
 8003ee2:	f64f 71ff 	movw	r1, #65535	; 0xffff
void TIM2_Delay(int time)
{
	int i;
	unsigned int t = TIME2_PLS_OF_1ms * time;

	Macro_Set_Bit(RCC->APB1ENR, 0);
 8003ee6:	f046 0601 	orr.w	r6, r6, #1

	TIM2->PSC = (unsigned int)(TIMXCLK/(double)TIM2_FREQ + 0.5)-1;
 8003eea:	f240 559f 	movw	r5, #1439	; 0x59f
void TIM2_Delay(int time)
{
	int i;
	unsigned int t = TIME2_PLS_OF_1ms * time;

	Macro_Set_Bit(RCC->APB1ENR, 0);
 8003eee:	61de      	str	r6, [r3, #28]

	TIM2->PSC = (unsigned int)(TIMXCLK/(double)TIM2_FREQ + 0.5)-1;
 8003ef0:	8515      	strh	r5, [r2, #40]	; 0x28
	TIM2->CR1 = (1<<4)|(1<<3);
 8003ef2:	8014      	strh	r4, [r2, #0]
	TIM2->ARR = 0xffff;
 8003ef4:	8591      	strh	r1, [r2, #44]	; 0x2c
/* Delay Time Extended */

void TIM2_Delay(int time)
{
	int i;
	unsigned int t = TIME2_PLS_OF_1ms * time;
 8003ef6:	2132      	movs	r1, #50	; 0x32
	Macro_Set_Bit(RCC->APB1ENR, 0);

	TIM2->PSC = (unsigned int)(TIMXCLK/(double)TIM2_FREQ + 0.5)-1;
	TIM2->CR1 = (1<<4)|(1<<3);
	TIM2->ARR = 0xffff;
	Macro_Set_Bit(TIM2->EGR,0);
 8003ef8:	8a93      	ldrh	r3, [r2, #20]
/* Delay Time Extended */

void TIM2_Delay(int time)
{
	int i;
	unsigned int t = TIME2_PLS_OF_1ms * time;
 8003efa:	fb01 f000 	mul.w	r0, r1, r0
	Macro_Set_Bit(RCC->APB1ENR, 0);

	TIM2->PSC = (unsigned int)(TIMXCLK/(double)TIM2_FREQ + 0.5)-1;
	TIM2->CR1 = (1<<4)|(1<<3);
	TIM2->ARR = 0xffff;
	Macro_Set_Bit(TIM2->EGR,0);
 8003efe:	b29b      	uxth	r3, r3
	Macro_Set_Bit(TIM2->DIER, 0);

	for(i=0; i<(t/0xffffu); i++)
 8003f00:	f248 0401 	movw	r4, #32769	; 0x8001
	Macro_Set_Bit(RCC->APB1ENR, 0);

	TIM2->PSC = (unsigned int)(TIMXCLK/(double)TIM2_FREQ + 0.5)-1;
	TIM2->CR1 = (1<<4)|(1<<3);
	TIM2->ARR = 0xffff;
	Macro_Set_Bit(TIM2->EGR,0);
 8003f04:	f043 0301 	orr.w	r3, r3, #1
	Macro_Set_Bit(TIM2->DIER, 0);

	for(i=0; i<(t/0xffffu); i++)
 8003f08:	f2c8 0400 	movt	r4, #32768	; 0x8000
	Macro_Set_Bit(RCC->APB1ENR, 0);

	TIM2->PSC = (unsigned int)(TIMXCLK/(double)TIM2_FREQ + 0.5)-1;
	TIM2->CR1 = (1<<4)|(1<<3);
	TIM2->ARR = 0xffff;
	Macro_Set_Bit(TIM2->EGR,0);
 8003f0c:	8293      	strh	r3, [r2, #20]
	Macro_Set_Bit(TIM2->DIER, 0);

	for(i=0; i<(t/0xffffu); i++)
 8003f0e:	fba4 1400 	umull	r1, r4, r4, r0

	TIM2->PSC = (unsigned int)(TIMXCLK/(double)TIM2_FREQ + 0.5)-1;
	TIM2->CR1 = (1<<4)|(1<<3);
	TIM2->ARR = 0xffff;
	Macro_Set_Bit(TIM2->EGR,0);
	Macro_Set_Bit(TIM2->DIER, 0);
 8003f12:	8993      	ldrh	r3, [r2, #12]

	for(i=0; i<(t/0xffffu); i++)
 8003f14:	0be4      	lsrs	r4, r4, #15

	TIM2->PSC = (unsigned int)(TIMXCLK/(double)TIM2_FREQ + 0.5)-1;
	TIM2->CR1 = (1<<4)|(1<<3);
	TIM2->ARR = 0xffff;
	Macro_Set_Bit(TIM2->EGR,0);
	Macro_Set_Bit(TIM2->DIER, 0);
 8003f16:	b29b      	uxth	r3, r3
 8003f18:	f043 0301 	orr.w	r3, r3, #1
 8003f1c:	8193      	strh	r3, [r2, #12]

	for(i=0; i<(t/0xffffu); i++)
 8003f1e:	bf18      	it	ne
 8003f20:	2100      	movne	r1, #0
 8003f22:	d015      	beq.n	8003f50 <TIM2_Delay+0x80>
	{
		Macro_Set_Bit(TIM2->EGR,0);
 8003f24:	8a93      	ldrh	r3, [r2, #20]
 8003f26:	b29b      	uxth	r3, r3
 8003f28:	f043 0301 	orr.w	r3, r3, #1
 8003f2c:	8293      	strh	r3, [r2, #20]
		Macro_Clear_Bit(TIM2->SR, 0);
 8003f2e:	8a13      	ldrh	r3, [r2, #16]
 8003f30:	f023 0301 	bic.w	r3, r3, #1
 8003f34:	041b      	lsls	r3, r3, #16
 8003f36:	0c1b      	lsrs	r3, r3, #16
 8003f38:	8213      	strh	r3, [r2, #16]
		Macro_Set_Bit(TIM2->CR1, 0);
 8003f3a:	8813      	ldrh	r3, [r2, #0]
 8003f3c:	b29b      	uxth	r3, r3
 8003f3e:	f043 0301 	orr.w	r3, r3, #1
 8003f42:	8013      	strh	r3, [r2, #0]
		while(Macro_Check_Bit_Clear(TIM2->SR, 0));
 8003f44:	8a13      	ldrh	r3, [r2, #16]
 8003f46:	07dd      	lsls	r5, r3, #31
 8003f48:	d5fc      	bpl.n	8003f44 <TIM2_Delay+0x74>
	TIM2->CR1 = (1<<4)|(1<<3);
	TIM2->ARR = 0xffff;
	Macro_Set_Bit(TIM2->EGR,0);
	Macro_Set_Bit(TIM2->DIER, 0);

	for(i=0; i<(t/0xffffu); i++)
 8003f4a:	3101      	adds	r1, #1
 8003f4c:	42a1      	cmp	r1, r4
 8003f4e:	d1e9      	bne.n	8003f24 <TIM2_Delay+0x54>
		Macro_Clear_Bit(TIM2->SR, 0);
		Macro_Set_Bit(TIM2->CR1, 0);
		while(Macro_Check_Bit_Clear(TIM2->SR, 0));
	}

	TIM2->ARR = t % 0xffffu;
 8003f50:	f248 0301 	movw	r3, #32769	; 0x8001
 8003f54:	f2c8 0300 	movt	r3, #32768	; 0x8000
 8003f58:	fba3 2300 	umull	r2, r3, r3, r0
 8003f5c:	0bdb      	lsrs	r3, r3, #15
 8003f5e:	ebc3 4303 	rsb	r3, r3, r3, lsl #16
 8003f62:	1ac2      	subs	r2, r0, r3
 8003f64:	b292      	uxth	r2, r2
 8003f66:	f04f 4380 	mov.w	r3, #1073741824	; 0x40000000
 8003f6a:	859a      	strh	r2, [r3, #44]	; 0x2c
	Macro_Set_Bit(TIM2->EGR,0);
 8003f6c:	8a9a      	ldrh	r2, [r3, #20]
	Macro_Clear_Bit(TIM2->SR, 0);
	Macro_Set_Bit(TIM2->CR1, 0);
	while (Macro_Check_Bit_Clear(TIM2->SR, 0));
 8003f6e:	4619      	mov	r1, r3
		Macro_Set_Bit(TIM2->CR1, 0);
		while(Macro_Check_Bit_Clear(TIM2->SR, 0));
	}

	TIM2->ARR = t % 0xffffu;
	Macro_Set_Bit(TIM2->EGR,0);
 8003f70:	b292      	uxth	r2, r2
 8003f72:	f042 0201 	orr.w	r2, r2, #1
 8003f76:	829a      	strh	r2, [r3, #20]
	Macro_Clear_Bit(TIM2->SR, 0);
 8003f78:	8a1a      	ldrh	r2, [r3, #16]
 8003f7a:	f022 0201 	bic.w	r2, r2, #1
 8003f7e:	0412      	lsls	r2, r2, #16
 8003f80:	0c12      	lsrs	r2, r2, #16
 8003f82:	821a      	strh	r2, [r3, #16]
	Macro_Set_Bit(TIM2->CR1, 0);
 8003f84:	881a      	ldrh	r2, [r3, #0]
 8003f86:	b292      	uxth	r2, r2
 8003f88:	f042 0201 	orr.w	r2, r2, #1
 8003f8c:	801a      	strh	r2, [r3, #0]
	while (Macro_Check_Bit_Clear(TIM2->SR, 0));
 8003f8e:	8a0b      	ldrh	r3, [r1, #16]
 8003f90:	f04f 4280 	mov.w	r2, #1073741824	; 0x40000000
 8003f94:	07db      	lsls	r3, r3, #31
 8003f96:	d5fa      	bpl.n	8003f8e <TIM2_Delay+0xbe>

	Macro_Clear_Bit(TIM2->CR1, 0);
 8003f98:	8813      	ldrh	r3, [r2, #0]
 8003f9a:	f023 0301 	bic.w	r3, r3, #1
 8003f9e:	041b      	lsls	r3, r3, #16
 8003fa0:	0c1b      	lsrs	r3, r3, #16
 8003fa2:	8013      	strh	r3, [r2, #0]
	Macro_Clear_Bit(TIM2->DIER, 0);
 8003fa4:	8993      	ldrh	r3, [r2, #12]
 8003fa6:	f023 0301 	bic.w	r3, r3, #1
 8003faa:	041b      	lsls	r3, r3, #16
 8003fac:	0c1b      	lsrs	r3, r3, #16
 8003fae:	8193      	strh	r3, [r2, #12]
}
 8003fb0:	bc70      	pop	{r4, r5, r6}
 8003fb2:	4770      	bx	lr

08003fb4 <TIM4_Repeat>:

#endif

void TIM4_Repeat(int time)
{
 8003fb4:	b430      	push	{r4, r5}
	Macro_Set_Bit(RCC->APB1ENR, 2);

	TIM4->CR1 = (1<<4)|(0<<3);
	TIM4->PSC = (unsigned int)(TIMXCLK/(double)TIM4_FREQ + 0.5)-1;
	TIM4->ARR = TIME4_PLS_OF_1ms * time - 1;
 8003fb6:	eb00 0080 	add.w	r0, r0, r0, lsl #2

#endif

void TIM4_Repeat(int time)
{
	Macro_Set_Bit(RCC->APB1ENR, 2);
 8003fba:	f44f 5280 	mov.w	r2, #4096	; 0x1000
 8003fbe:	f2c4 0202 	movt	r2, #16386	; 0x4002

	TIM4->CR1 = (1<<4)|(0<<3);
	TIM4->PSC = (unsigned int)(TIMXCLK/(double)TIM4_FREQ + 0.5)-1;
	TIM4->ARR = TIME4_PLS_OF_1ms * time - 1;
 8003fc2:	eb00 0080 	add.w	r0, r0, r0, lsl #2

#endif

void TIM4_Repeat(int time)
{
	Macro_Set_Bit(RCC->APB1ENR, 2);
 8003fc6:	69d5      	ldr	r5, [r2, #28]

	TIM4->CR1 = (1<<4)|(0<<3);
	TIM4->PSC = (unsigned int)(TIMXCLK/(double)TIM4_FREQ + 0.5)-1;
	TIM4->ARR = TIME4_PLS_OF_1ms * time - 1;
 8003fc8:	0040      	lsls	r0, r0, #1
 8003fca:	3801      	subs	r0, #1

void TIM4_Repeat(int time)
{
	Macro_Set_Bit(RCC->APB1ENR, 2);

	TIM4->CR1 = (1<<4)|(0<<3);
 8003fcc:	f44f 6300 	mov.w	r3, #2048	; 0x800
 8003fd0:	f2c4 0300 	movt	r3, #16384	; 0x4000
 8003fd4:	2410      	movs	r4, #16

#endif

void TIM4_Repeat(int time)
{
	Macro_Set_Bit(RCC->APB1ENR, 2);
 8003fd6:	f045 0504 	orr.w	r5, r5, #4

	TIM4->CR1 = (1<<4)|(0<<3);
	TIM4->PSC = (unsigned int)(TIMXCLK/(double)TIM4_FREQ + 0.5)-1;
	TIM4->ARR = TIME4_PLS_OF_1ms * time - 1;
 8003fda:	b280      	uxth	r0, r0
void TIM4_Repeat(int time)
{
	Macro_Set_Bit(RCC->APB1ENR, 2);

	TIM4->CR1 = (1<<4)|(0<<3);
	TIM4->PSC = (unsigned int)(TIMXCLK/(double)TIM4_FREQ + 0.5)-1;
 8003fdc:	f240 519f 	movw	r1, #1439	; 0x59f

#endif

void TIM4_Repeat(int time)
{
	Macro_Set_Bit(RCC->APB1ENR, 2);
 8003fe0:	61d5      	str	r5, [r2, #28]

	TIM4->CR1 = (1<<4)|(0<<3);
 8003fe2:	801c      	strh	r4, [r3, #0]
	TIM4->PSC = (unsigned int)(TIMXCLK/(double)TIM4_FREQ + 0.5)-1;
 8003fe4:	8519      	strh	r1, [r3, #40]	; 0x28
	TIM4->ARR = TIME4_PLS_OF_1ms * time - 1;
 8003fe6:	8598      	strh	r0, [r3, #44]	; 0x2c

	Macro_Set_Bit(TIM4->EGR,0);
 8003fe8:	8a9a      	ldrh	r2, [r3, #20]
 8003fea:	b292      	uxth	r2, r2
 8003fec:	f042 0201 	orr.w	r2, r2, #1
 8003ff0:	829a      	strh	r2, [r3, #20]
	Macro_Clear_Bit(TIM4->SR, 0);
 8003ff2:	8a1a      	ldrh	r2, [r3, #16]
 8003ff4:	f022 0201 	bic.w	r2, r2, #1
 8003ff8:	40a2      	lsls	r2, r4
 8003ffa:	40e2      	lsrs	r2, r4
 8003ffc:	821a      	strh	r2, [r3, #16]
	Macro_Set_Bit(TIM4->DIER, 0);
 8003ffe:	899a      	ldrh	r2, [r3, #12]
 8004000:	b292      	uxth	r2, r2
 8004002:	f042 0201 	orr.w	r2, r2, #1
 8004006:	819a      	strh	r2, [r3, #12]
	Macro_Set_Bit(TIM4->CR1, 0);
 8004008:	881a      	ldrh	r2, [r3, #0]
 800400a:	b292      	uxth	r2, r2
 800400c:	f042 0201 	orr.w	r2, r2, #1
 8004010:	801a      	strh	r2, [r3, #0]
}
 8004012:	bc30      	pop	{r4, r5}
 8004014:	4770      	bx	lr
 8004016:	bf00      	nop

08004018 <TIM4_Check_Timeout>:

int TIM4_Check_Timeout(void)
{
	if(Macro_Check_Bit_Set(TIM4->SR, 0))
 8004018:	f44f 6300 	mov.w	r3, #2048	; 0x800
 800401c:	f2c4 0300 	movt	r3, #16384	; 0x4000
 8004020:	8a18      	ldrh	r0, [r3, #16]
 8004022:	f010 0001 	ands.w	r0, r0, #1
 8004026:	d006      	beq.n	8004036 <TIM4_Check_Timeout+0x1e>
	{
		Macro_Clear_Bit(TIM4->SR, 0);
 8004028:	8a1a      	ldrh	r2, [r3, #16]
		return 1;
 800402a:	2001      	movs	r0, #1

int TIM4_Check_Timeout(void)
{
	if(Macro_Check_Bit_Set(TIM4->SR, 0))
	{
		Macro_Clear_Bit(TIM4->SR, 0);
 800402c:	f022 0201 	bic.w	r2, r2, #1
 8004030:	0412      	lsls	r2, r2, #16
 8004032:	0c12      	lsrs	r2, r2, #16
 8004034:	821a      	strh	r2, [r3, #16]
	}
	else
	{
		return 0;
	}
}
 8004036:	4770      	bx	lr

08004038 <TIM4_Stop>:

void TIM4_Stop(void)
{
	Macro_Clear_Bit(TIM4->CR1, 0);
 8004038:	f44f 6300 	mov.w	r3, #2048	; 0x800
 800403c:	f2c4 0300 	movt	r3, #16384	; 0x4000
 8004040:	881a      	ldrh	r2, [r3, #0]
 8004042:	f022 0201 	bic.w	r2, r2, #1
 8004046:	0412      	lsls	r2, r2, #16
 8004048:	0c12      	lsrs	r2, r2, #16
 800404a:	801a      	strh	r2, [r3, #0]
	Macro_Clear_Bit(TIM4->DIER, 0);
 800404c:	899a      	ldrh	r2, [r3, #12]
 800404e:	f022 0201 	bic.w	r2, r2, #1
 8004052:	0412      	lsls	r2, r2, #16
 8004054:	0c12      	lsrs	r2, r2, #16
 8004056:	819a      	strh	r2, [r3, #12]
 8004058:	4770      	bx	lr
 800405a:	bf00      	nop

0800405c <TIM4_Change_Value>:
}

void TIM4_Change_Value(int time)
{
	TIM4->ARR = TIME4_PLS_OF_1ms * time;
 800405c:	eb00 0080 	add.w	r0, r0, r0, lsl #2
 8004060:	eb00 0080 	add.w	r0, r0, r0, lsl #2
 8004064:	0040      	lsls	r0, r0, #1
 8004066:	f44f 6300 	mov.w	r3, #2048	; 0x800
 800406a:	b280      	uxth	r0, r0
 800406c:	f2c4 0300 	movt	r3, #16384	; 0x4000
 8004070:	8598      	strh	r0, [r3, #44]	; 0x2c
 8004072:	4770      	bx	lr

08004074 <TIM3_Out_Init>:
}

void TIM3_Out_Init(void)
{
	Macro_Set_Bit(RCC->APB1ENR, 1);
 8004074:	f44f 5380 	mov.w	r3, #4096	; 0x1000
 8004078:	f2c4 0302 	movt	r3, #16386	; 0x4002
 800407c:	69da      	ldr	r2, [r3, #28]
	Macro_Set_Bit(RCC->APB2ENR, 3);
	Macro_Write_Block(GPIOB->CRL,0xf,0xb,0);
 800407e:	f44f 6140 	mov.w	r1, #3072	; 0xc00
	TIM4->ARR = TIME4_PLS_OF_1ms * time;
}

void TIM3_Out_Init(void)
{
	Macro_Set_Bit(RCC->APB1ENR, 1);
 8004082:	f042 0202 	orr.w	r2, r2, #2
 8004086:	61da      	str	r2, [r3, #28]
	Macro_Set_Bit(RCC->APB2ENR, 3);
 8004088:	699a      	ldr	r2, [r3, #24]
	Macro_Write_Block(GPIOB->CRL,0xf,0xb,0);
 800408a:	f2c4 0101 	movt	r1, #16385	; 0x4001
}

void TIM3_Out_Init(void)
{
	Macro_Set_Bit(RCC->APB1ENR, 1);
	Macro_Set_Bit(RCC->APB2ENR, 3);
 800408e:	f042 0208 	orr.w	r2, r2, #8
 8004092:	619a      	str	r2, [r3, #24]
	Macro_Write_Block(GPIOB->CRL,0xf,0xb,0);
 8004094:	680b      	ldr	r3, [r1, #0]
	Macro_Write_Block(TIM3->CCMR2,0x7,0x6,4);
 8004096:	f44f 6280 	mov.w	r2, #1024	; 0x400

void TIM3_Out_Init(void)
{
	Macro_Set_Bit(RCC->APB1ENR, 1);
	Macro_Set_Bit(RCC->APB2ENR, 3);
	Macro_Write_Block(GPIOB->CRL,0xf,0xb,0);
 800409a:	f023 030f 	bic.w	r3, r3, #15
 800409e:	f043 030b 	orr.w	r3, r3, #11
 80040a2:	600b      	str	r3, [r1, #0]
	Macro_Write_Block(TIM3->CCMR2,0x7,0x6,4);
 80040a4:	f2c4 0200 	movt	r2, #16384	; 0x4000
 80040a8:	8b93      	ldrh	r3, [r2, #28]
	TIM3->CCER = (0<<9)|(1<<8);
 80040aa:	f44f 7180 	mov.w	r1, #256	; 0x100
void TIM3_Out_Init(void)
{
	Macro_Set_Bit(RCC->APB1ENR, 1);
	Macro_Set_Bit(RCC->APB2ENR, 3);
	Macro_Write_Block(GPIOB->CRL,0xf,0xb,0);
	Macro_Write_Block(TIM3->CCMR2,0x7,0x6,4);
 80040ae:	f023 0370 	bic.w	r3, r3, #112	; 0x70
 80040b2:	041b      	lsls	r3, r3, #16
 80040b4:	0c1b      	lsrs	r3, r3, #16
 80040b6:	f043 0360 	orr.w	r3, r3, #96	; 0x60
 80040ba:	8393      	strh	r3, [r2, #28]
	TIM3->CCER = (0<<9)|(1<<8);
 80040bc:	8411      	strh	r1, [r2, #32]
 80040be:	4770      	bx	lr

080040c0 <TIM3_Out_Freq_Generation>:
}

void TIM3_Out_Freq_Generation(unsigned short freq)
{
 80040c0:	b510      	push	{r4, lr}
	TIM3->PSC = (unsigned int)(TIMXCLK/(double)TIM3_FREQ + 0.5)-1;
 80040c2:	f44f 6480 	mov.w	r4, #1024	; 0x400
 80040c6:	f2c4 0400 	movt	r4, #16384	; 0x4000
 80040ca:	2308      	movs	r3, #8
 80040cc:	8523      	strh	r3, [r4, #40]	; 0x28
	TIM3->ARR = (double)TIM3_FREQ/freq-1;
 80040ce:	f005 fb03 	bl	80096d8 <__aeabi_i2d>
 80040d2:	4602      	mov	r2, r0
 80040d4:	460b      	mov	r3, r1
 80040d6:	a10e      	add	r1, pc, #56	; (adr r1, 8004110 <TIM3_Out_Freq_Generation+0x50>)
 80040d8:	e9d1 0100 	ldrd	r0, r1, [r1]
 80040dc:	f005 fc8c 	bl	80099f8 <__aeabi_ddiv>
 80040e0:	2300      	movs	r3, #0
 80040e2:	2200      	movs	r2, #0
 80040e4:	f6c3 73f0 	movt	r3, #16368	; 0x3ff0
 80040e8:	f005 f9a8 	bl	800943c <__aeabi_dsub>
 80040ec:	f005 fe1c 	bl	8009d28 <__aeabi_d2uiz>
 80040f0:	b280      	uxth	r0, r0
 80040f2:	85a0      	strh	r0, [r4, #44]	; 0x2c
	TIM3->CCR3 = TIM3->ARR/2;
 80040f4:	8da2      	ldrh	r2, [r4, #44]	; 0x2c

	Macro_Set_Bit(TIM3->EGR,0);
	TIM3->CR1 = (1<<4)|(0<<3)|(0<<1)|(1<<0);
 80040f6:	2311      	movs	r3, #17

void TIM3_Out_Freq_Generation(unsigned short freq)
{
	TIM3->PSC = (unsigned int)(TIMXCLK/(double)TIM3_FREQ + 0.5)-1;
	TIM3->ARR = (double)TIM3_FREQ/freq-1;
	TIM3->CCR3 = TIM3->ARR/2;
 80040f8:	f3c2 024e 	ubfx	r2, r2, #1, #15
 80040fc:	87a2      	strh	r2, [r4, #60]	; 0x3c

	Macro_Set_Bit(TIM3->EGR,0);
 80040fe:	8aa2      	ldrh	r2, [r4, #20]
 8004100:	b292      	uxth	r2, r2
 8004102:	f042 0201 	orr.w	r2, r2, #1
 8004106:	82a2      	strh	r2, [r4, #20]
	TIM3->CR1 = (1<<4)|(0<<3)|(0<<1)|(1<<0);
 8004108:	8023      	strh	r3, [r4, #0]
 800410a:	bd10      	pop	{r4, pc}
 800410c:	f3af 8000 	nop.w
 8004110:	00000000 	andeq	r0, r0, r0
 8004114:	415e8480 	cmpmi	lr, r0, lsl #9

08004118 <TIM3_Out_Stop>:
}

void TIM3_Out_Stop(void)
{
	Macro_Clear_Bit(TIM3->CR1, 0);
 8004118:	f44f 6380 	mov.w	r3, #1024	; 0x400
 800411c:	f2c4 0300 	movt	r3, #16384	; 0x4000
 8004120:	881a      	ldrh	r2, [r3, #0]
 8004122:	f022 0201 	bic.w	r2, r2, #1
 8004126:	0412      	lsls	r2, r2, #16
 8004128:	0c12      	lsrs	r2, r2, #16
 800412a:	801a      	strh	r2, [r3, #0]
	Macro_Clear_Bit(TIM3->DIER, 0);
 800412c:	899a      	ldrh	r2, [r3, #12]
 800412e:	f022 0201 	bic.w	r2, r2, #1
 8004132:	0412      	lsls	r2, r2, #16
 8004134:	0c12      	lsrs	r2, r2, #16
 8004136:	819a      	strh	r2, [r3, #12]
 8004138:	4770      	bx	lr
 800413a:	bf00      	nop
 800413c:	f3af 8000 	nop.w

08004140 <Uart1_Init>:
#include <string.h>
#include <stdlib.h>
#include <ctype.h>

void Uart1_Init(int baud)
{
 8004140:	b570      	push	{r4, r5, r6, lr}
	double div;
	unsigned int mant;
	unsigned int frac;

	Macro_Set_Bit(RCC->APB2ENR, 2);
 8004142:	f44f 5280 	mov.w	r2, #4096	; 0x1000
 8004146:	f2c4 0202 	movt	r2, #16386	; 0x4002
 800414a:	6991      	ldr	r1, [r2, #24]
	Macro_Set_Bit(RCC->APB2ENR, 14);
	Macro_Write_Block(GPIOA->CRH, 0xff, 0x8a, 4);
 800414c:	f44f 6300 	mov.w	r3, #2048	; 0x800
{
	double div;
	unsigned int mant;
	unsigned int frac;

	Macro_Set_Bit(RCC->APB2ENR, 2);
 8004150:	f041 0104 	orr.w	r1, r1, #4
 8004154:	6191      	str	r1, [r2, #24]
	Macro_Set_Bit(RCC->APB2ENR, 14);
 8004156:	6991      	ldr	r1, [r2, #24]
	Macro_Write_Block(GPIOA->CRH, 0xff, 0x8a, 4);
 8004158:	f2c4 0301 	movt	r3, #16385	; 0x4001
	double div;
	unsigned int mant;
	unsigned int frac;

	Macro_Set_Bit(RCC->APB2ENR, 2);
	Macro_Set_Bit(RCC->APB2ENR, 14);
 800415c:	f441 4180 	orr.w	r1, r1, #16384	; 0x4000
 8004160:	6191      	str	r1, [r2, #24]
	Macro_Write_Block(GPIOA->CRH, 0xff, 0x8a, 4);
 8004162:	685a      	ldr	r2, [r3, #4]
 8004164:	f422 627f 	bic.w	r2, r2, #4080	; 0xff0
 8004168:	f442 620a 	orr.w	r2, r2, #2208	; 0x8a0
 800416c:	605a      	str	r2, [r3, #4]
	Macro_Set_Bit(GPIOA->ODR, 10);
 800416e:	68da      	ldr	r2, [r3, #12]
 8004170:	f442 6280 	orr.w	r2, r2, #1024	; 0x400
 8004174:	60da      	str	r2, [r3, #12]

	div = PCLK2/(16. * baud);
 8004176:	f005 faaf 	bl	80096d8 <__aeabi_i2d>
 800417a:	2300      	movs	r3, #0
 800417c:	2200      	movs	r2, #0
 800417e:	f2c4 0330 	movt	r3, #16432	; 0x4030
 8004182:	f005 fb0f 	bl	80097a4 <__aeabi_dmul>
 8004186:	4602      	mov	r2, r0
 8004188:	460b      	mov	r3, r1
 800418a:	a119      	add	r1, pc, #100	; (adr r1, 80041f0 <Uart1_Init+0xb0>)
 800418c:	e9d1 0100 	ldrd	r0, r1, [r1]
 8004190:	f005 fc32 	bl	80099f8 <__aeabi_ddiv>
 8004194:	460d      	mov	r5, r1
 8004196:	4604      	mov	r4, r0
	mant = (int)div;
 8004198:	f005 fd9e 	bl	8009cd8 <__aeabi_d2iz>
 800419c:	4606      	mov	r6, r0
	frac = (int)((div - mant) * 16. + 0.5);
 800419e:	f005 fa8b 	bl	80096b8 <__aeabi_ui2d>
 80041a2:	4602      	mov	r2, r0
 80041a4:	460b      	mov	r3, r1
 80041a6:	4620      	mov	r0, r4
 80041a8:	4629      	mov	r1, r5
 80041aa:	f005 f947 	bl	800943c <__aeabi_dsub>
 80041ae:	2300      	movs	r3, #0
 80041b0:	2200      	movs	r2, #0
 80041b2:	f2c4 0330 	movt	r3, #16432	; 0x4030
 80041b6:	f005 faf5 	bl	80097a4 <__aeabi_dmul>
 80041ba:	2300      	movs	r3, #0
 80041bc:	2200      	movs	r2, #0
 80041be:	f6c3 73e0 	movt	r3, #16352	; 0x3fe0
 80041c2:	f005 f93d 	bl	8009440 <__adddf3>
 80041c6:	f005 fd87 	bl	8009cd8 <__aeabi_d2iz>
	mant += frac >> 4;
 80041ca:	eb06 1610 	add.w	r6, r6, r0, lsr #4
	frac &= 0xf;
 80041ce:	f000 000f 	and.w	r0, r0, #15

	USART1->BRR = (mant<<4)+(frac<<0);
 80041d2:	eb00 1006 	add.w	r0, r0, r6, lsl #4
 80041d6:	f44f 5360 	mov.w	r3, #14336	; 0x3800
 80041da:	f2c4 0301 	movt	r3, #16385	; 0x4001
	USART1->CR1 = (1<<13)|(0<<12)|(0<<10)|(1<<3)|(1<<2);
	USART1->CR2 = 0<<12;
 80041de:	2200      	movs	r2, #0
	mant = (int)div;
	frac = (int)((div - mant) * 16. + 0.5);
	mant += frac >> 4;
	frac &= 0xf;

	USART1->BRR = (mant<<4)+(frac<<0);
 80041e0:	b280      	uxth	r0, r0
	USART1->CR1 = (1<<13)|(0<<12)|(0<<10)|(1<<3)|(1<<2);
 80041e2:	f242 010c 	movw	r1, #8204	; 0x200c
	mant = (int)div;
	frac = (int)((div - mant) * 16. + 0.5);
	mant += frac >> 4;
	frac &= 0xf;

	USART1->BRR = (mant<<4)+(frac<<0);
 80041e6:	8118      	strh	r0, [r3, #8]
	USART1->CR1 = (1<<13)|(0<<12)|(0<<10)|(1<<3)|(1<<2);
 80041e8:	8199      	strh	r1, [r3, #12]
	USART1->CR2 = 0<<12;
 80041ea:	821a      	strh	r2, [r3, #16]
	USART1->CR3 = 0;
 80041ec:	829a      	strh	r2, [r3, #20]
 80041ee:	bd70      	pop	{r4, r5, r6, pc}
 80041f0:	00000000 	andeq	r0, r0, r0
 80041f4:	41912a88 	orrsmi	r2, r1, r8, lsl #21

080041f8 <Uart1_Send_Byte>:
}

void Uart1_Send_Byte(char data)
{
	if(data=='\n')
 80041f8:	280a      	cmp	r0, #10
 80041fa:	d00c      	beq.n	8004216 <Uart1_Send_Byte+0x1e>
	{
		while(Macro_Check_Bit_Clear(USART1->SR, 7));
		USART1->DR = 0x0d;
	}

	while(Macro_Check_Bit_Clear(USART1->SR, 7));
 80041fc:	f44f 5160 	mov.w	r1, #14336	; 0x3800
 8004200:	f2c4 0101 	movt	r1, #16385	; 0x4001
 8004204:	880a      	ldrh	r2, [r1, #0]
 8004206:	f44f 5360 	mov.w	r3, #14336	; 0x3800
 800420a:	0612      	lsls	r2, r2, #24
 800420c:	f2c4 0301 	movt	r3, #16385	; 0x4001
 8004210:	d5f8      	bpl.n	8004204 <Uart1_Send_Byte+0xc>
	USART1->DR = data;
 8004212:	8098      	strh	r0, [r3, #4]
 8004214:	4770      	bx	lr

void Uart1_Send_Byte(char data)
{
	if(data=='\n')
	{
		while(Macro_Check_Bit_Clear(USART1->SR, 7));
 8004216:	f44f 5160 	mov.w	r1, #14336	; 0x3800
 800421a:	f2c4 0101 	movt	r1, #16385	; 0x4001
 800421e:	880a      	ldrh	r2, [r1, #0]
 8004220:	f44f 5360 	mov.w	r3, #14336	; 0x3800
 8004224:	0612      	lsls	r2, r2, #24
 8004226:	f2c4 0301 	movt	r3, #16385	; 0x4001
 800422a:	d5f8      	bpl.n	800421e <Uart1_Send_Byte+0x26>
		USART1->DR = 0x0d;
 800422c:	220d      	movs	r2, #13
 800422e:	809a      	strh	r2, [r3, #4]
 8004230:	e7e4      	b.n	80041fc <Uart1_Send_Byte+0x4>
 8004232:	bf00      	nop

08004234 <Uart1_Send_String>:
	while(Macro_Check_Bit_Clear(USART1->SR, 7));
	USART1->DR = data;
}

void Uart1_Send_String(char *pt)
{
 8004234:	b430      	push	{r4, r5}
	while(*pt!=0)
 8004236:	7804      	ldrb	r4, [r0, #0]
 8004238:	b194      	cbz	r4, 8004260 <Uart1_Send_String+0x2c>

void Uart1_Send_Byte(char data)
{
	if(data=='\n')
	{
		while(Macro_Check_Bit_Clear(USART1->SR, 7));
 800423a:	f44f 5160 	mov.w	r1, #14336	; 0x3800
 800423e:	f2c4 0101 	movt	r1, #16385	; 0x4001
		USART1->DR = 0x0d;
 8004242:	250d      	movs	r5, #13
	USART1->CR3 = 0;
}

void Uart1_Send_Byte(char data)
{
	if(data=='\n')
 8004244:	2c0a      	cmp	r4, #10
 8004246:	d00d      	beq.n	8004264 <Uart1_Send_String+0x30>
	{
		while(Macro_Check_Bit_Clear(USART1->SR, 7));
		USART1->DR = 0x0d;
	}

	while(Macro_Check_Bit_Clear(USART1->SR, 7));
 8004248:	880a      	ldrh	r2, [r1, #0]
 800424a:	f44f 5360 	mov.w	r3, #14336	; 0x3800
 800424e:	0612      	lsls	r2, r2, #24
 8004250:	f2c4 0301 	movt	r3, #16385	; 0x4001
 8004254:	d5f8      	bpl.n	8004248 <Uart1_Send_String+0x14>
	USART1->DR = data;
 8004256:	809c      	strh	r4, [r3, #4]
}

void Uart1_Send_String(char *pt)
{
	while(*pt!=0)
 8004258:	f810 4f01 	ldrb.w	r4, [r0, #1]!
 800425c:	2c00      	cmp	r4, #0
 800425e:	d1f1      	bne.n	8004244 <Uart1_Send_String+0x10>
	{
		Uart1_Send_Byte(*pt++);
	}
}
 8004260:	bc30      	pop	{r4, r5}
 8004262:	4770      	bx	lr

void Uart1_Send_Byte(char data)
{
	if(data=='\n')
	{
		while(Macro_Check_Bit_Clear(USART1->SR, 7));
 8004264:	880a      	ldrh	r2, [r1, #0]
 8004266:	f44f 5360 	mov.w	r3, #14336	; 0x3800
 800426a:	0612      	lsls	r2, r2, #24
 800426c:	f2c4 0301 	movt	r3, #16385	; 0x4001
 8004270:	d5f8      	bpl.n	8004264 <Uart1_Send_String+0x30>
		USART1->DR = 0x0d;
 8004272:	809d      	strh	r5, [r3, #4]
 8004274:	e7e8      	b.n	8004248 <Uart1_Send_String+0x14>
 8004276:	bf00      	nop

08004278 <Uart1_Printf>:
		Uart1_Send_Byte(*pt++);
	}
}

void Uart1_Printf(char *fmt,...)
{
 8004278:	b40f      	push	{r0, r1, r2, r3}
 800427a:	b530      	push	{r4, r5, lr}
 800427c:	b0c3      	sub	sp, #268	; 0x10c
 800427e:	ab46      	add	r3, sp, #280	; 0x118
 8004280:	f853 1b04 	ldr.w	r1, [r3], #4
	va_list ap;
	char string[256];

	va_start(ap,fmt);
	vsprintf(string,fmt,ap);
 8004284:	a802      	add	r0, sp, #8
 8004286:	461a      	mov	r2, r3
void Uart1_Printf(char *fmt,...)
{
	va_list ap;
	char string[256];

	va_start(ap,fmt);
 8004288:	9301      	str	r3, [sp, #4]
	vsprintf(string,fmt,ap);
 800428a:	f000 f87b 	bl	8004384 <vsprintf>
	USART1->DR = data;
}

void Uart1_Send_String(char *pt)
{
	while(*pt!=0)
 800428e:	f89d 0008 	ldrb.w	r0, [sp, #8]
 8004292:	b198      	cbz	r0, 80042bc <Uart1_Printf+0x44>

void Uart1_Send_Byte(char data)
{
	if(data=='\n')
	{
		while(Macro_Check_Bit_Clear(USART1->SR, 7));
 8004294:	f44f 5160 	mov.w	r1, #14336	; 0x3800
 8004298:	ac02      	add	r4, sp, #8
 800429a:	f2c4 0101 	movt	r1, #16385	; 0x4001
		USART1->DR = 0x0d;
 800429e:	250d      	movs	r5, #13
	USART1->CR3 = 0;
}

void Uart1_Send_Byte(char data)
{
	if(data=='\n')
 80042a0:	280a      	cmp	r0, #10
 80042a2:	d010      	beq.n	80042c6 <Uart1_Printf+0x4e>
	{
		while(Macro_Check_Bit_Clear(USART1->SR, 7));
		USART1->DR = 0x0d;
	}

	while(Macro_Check_Bit_Clear(USART1->SR, 7));
 80042a4:	880a      	ldrh	r2, [r1, #0]
 80042a6:	f44f 5360 	mov.w	r3, #14336	; 0x3800
 80042aa:	0612      	lsls	r2, r2, #24
 80042ac:	f2c4 0301 	movt	r3, #16385	; 0x4001
 80042b0:	d5f8      	bpl.n	80042a4 <Uart1_Printf+0x2c>
	USART1->DR = data;
 80042b2:	8098      	strh	r0, [r3, #4]
}

void Uart1_Send_String(char *pt)
{
	while(*pt!=0)
 80042b4:	f814 0f01 	ldrb.w	r0, [r4, #1]!
 80042b8:	2800      	cmp	r0, #0
 80042ba:	d1f1      	bne.n	80042a0 <Uart1_Printf+0x28>

	va_start(ap,fmt);
	vsprintf(string,fmt,ap);
	Uart1_Send_String(string);
	va_end(ap);
}
 80042bc:	b043      	add	sp, #268	; 0x10c
 80042be:	e8bd 4030 	ldmia.w	sp!, {r4, r5, lr}
 80042c2:	b004      	add	sp, #16
 80042c4:	4770      	bx	lr

void Uart1_Send_Byte(char data)
{
	if(data=='\n')
	{
		while(Macro_Check_Bit_Clear(USART1->SR, 7));
 80042c6:	880a      	ldrh	r2, [r1, #0]
 80042c8:	f44f 5360 	mov.w	r3, #14336	; 0x3800
 80042cc:	0612      	lsls	r2, r2, #24
 80042ce:	f2c4 0301 	movt	r3, #16385	; 0x4001
 80042d2:	d5f8      	bpl.n	80042c6 <Uart1_Printf+0x4e>
		USART1->DR = 0x0d;
 80042d4:	809d      	strh	r5, [r3, #4]
 80042d6:	e7e5      	b.n	80042a4 <Uart1_Printf+0x2c>

080042d8 <Uart1_Get_Pressed>:
	va_end(ap);
}

char Uart1_Get_Pressed(void)
{
	if(Macro_Check_Bit_Set(USART1->SR, 5))
 80042d8:	f44f 5360 	mov.w	r3, #14336	; 0x3800
 80042dc:	f2c4 0301 	movt	r3, #16385	; 0x4001
 80042e0:	8818      	ldrh	r0, [r3, #0]
 80042e2:	f3c0 1040 	ubfx	r0, r0, #5, #1
 80042e6:	b108      	cbz	r0, 80042ec <Uart1_Get_Pressed+0x14>
	{
		return (char)USART1->DR;
 80042e8:	8898      	ldrh	r0, [r3, #4]
 80042ea:	b2c0      	uxtb	r0, r0

	else
	{
		return (char)0;
	}
}
 80042ec:	4770      	bx	lr
 80042ee:	bf00      	nop

080042f0 <Uart1_Get_Char>:
	va_end(ap);
}

char Uart1_Get_Pressed(void)
{
	if(Macro_Check_Bit_Set(USART1->SR, 5))
 80042f0:	f44f 5260 	mov.w	r2, #14336	; 0x3800
 80042f4:	f2c4 0201 	movt	r2, #16385	; 0x4001
 80042f8:	8813      	ldrh	r3, [r2, #0]
 80042fa:	0699      	lsls	r1, r3, #26
 80042fc:	d5fc      	bpl.n	80042f8 <Uart1_Get_Char+0x8>
	{
		return (char)USART1->DR;
 80042fe:	8890      	ldrh	r0, [r2, #4]
 8004300:	b2c0      	uxtb	r0, r0

char Uart1_Get_Char(void)
{
	char rx;

	while((rx = Uart1_Get_Pressed()) == 0);
 8004302:	2800      	cmp	r0, #0
 8004304:	d0f8      	beq.n	80042f8 <Uart1_Get_Char+0x8>

	return rx;
}
 8004306:	4770      	bx	lr

08004308 <Uart1_RX_Interrupt_Enable>:

void Uart1_RX_Interrupt_Enable(int en)
{
	if(en)
	{
		Macro_Set_Bit(USART1->CR1, 5);
 8004308:	f44f 5260 	mov.w	r2, #14336	; 0x3800
 800430c:	f2c4 0201 	movt	r2, #16385	; 0x4001
	return rx;
}

void Uart1_RX_Interrupt_Enable(int en)
{
	if(en)
 8004310:	b968      	cbnz	r0, 800432e <Uart1_RX_Interrupt_Enable+0x26>
		NVIC_EnableIRQ(37);
	}

	else
	{
		Macro_Clear_Bit(USART1->CR1, 5);
 8004312:	8993      	ldrh	r3, [r2, #12]
 * Disable a device specific interupt in the NVIC interrupt controller.
 * The interrupt number cannot be a negative value.
 */
static __INLINE void NVIC_DisableIRQ(IRQn_Type IRQn)
{
  NVIC->ICER[((uint32_t)(IRQn) >> 5)] = (1 << ((uint32_t)(IRQn) & 0x1F)); /* disable interrupt */
 8004314:	f44f 4161 	mov.w	r1, #57600	; 0xe100
 8004318:	f023 0320 	bic.w	r3, r3, #32
 800431c:	041b      	lsls	r3, r3, #16
 800431e:	0c1b      	lsrs	r3, r3, #16
 8004320:	f2ce 0100 	movt	r1, #57344	; 0xe000
 8004324:	2020      	movs	r0, #32
 8004326:	8193      	strh	r3, [r2, #12]
 8004328:	f8c1 0084 	str.w	r0, [r1, #132]	; 0x84
 800432c:	4770      	bx	lr

void Uart1_RX_Interrupt_Enable(int en)
{
	if(en)
	{
		Macro_Set_Bit(USART1->CR1, 5);
 800432e:	8990      	ldrh	r0, [r2, #12]
 * Clear the pending bit for the specified interrupt. 
 * The interrupt number cannot be a negative value.
 */
static __INLINE void NVIC_ClearPendingIRQ(IRQn_Type IRQn)
{
  NVIC->ICPR[((uint32_t)(IRQn) >> 5)] = (1 << ((uint32_t)(IRQn) & 0x1F)); /* Clear pending interrupt */
 8004330:	f44f 4361 	mov.w	r3, #57600	; 0xe100
 8004334:	b280      	uxth	r0, r0
 8004336:	f2ce 0300 	movt	r3, #57344	; 0xe000
 800433a:	2120      	movs	r1, #32
 800433c:	f040 0020 	orr.w	r0, r0, #32
 8004340:	8190      	strh	r0, [r2, #12]
 8004342:	f8c3 1184 	str.w	r1, [r3, #388]	; 0x184
 * Enable a device specific interupt in the NVIC interrupt controller.
 * The interrupt number cannot be a negative value.
 */
static __INLINE void NVIC_EnableIRQ(IRQn_Type IRQn)
{
  NVIC->ISER[((uint32_t)(IRQn) >> 5)] = (1 << ((uint32_t)(IRQn) & 0x1F)); /* enable interrupt */
 8004346:	6059      	str	r1, [r3, #4]
 8004348:	4770      	bx	lr
 800434a:	bf00      	nop
 800434c:	f3af 8000 	nop.w

08004350 <_vsprintf_r>:
 8004350:	b530      	push	{r4, r5, lr}
 8004352:	b09b      	sub	sp, #108	; 0x6c
 8004354:	460c      	mov	r4, r1
 8004356:	4669      	mov	r1, sp
 8004358:	9400      	str	r4, [sp, #0]
 800435a:	f44f 7502 	mov.w	r5, #520	; 0x208
 800435e:	9404      	str	r4, [sp, #16]
 8004360:	f06f 4400 	mvn.w	r4, #2147483648	; 0x80000000
 8004364:	f8ad 500c 	strh.w	r5, [sp, #12]
 8004368:	f64f 75ff 	movw	r5, #65535	; 0xffff
 800436c:	9402      	str	r4, [sp, #8]
 800436e:	9405      	str	r4, [sp, #20]
 8004370:	f8ad 500e 	strh.w	r5, [sp, #14]
 8004374:	f000 f814 	bl	80043a0 <_svfprintf_r>
 8004378:	9b00      	ldr	r3, [sp, #0]
 800437a:	2200      	movs	r2, #0
 800437c:	701a      	strb	r2, [r3, #0]
 800437e:	b01b      	add	sp, #108	; 0x6c
 8004380:	bd30      	pop	{r4, r5, pc}
 8004382:	bf00      	nop

08004384 <vsprintf>:
 8004384:	b430      	push	{r4, r5}
 8004386:	f240 0404 	movw	r4, #4
 800438a:	f2c2 0400 	movt	r4, #8192	; 0x2000
 800438e:	460d      	mov	r5, r1
 8004390:	4613      	mov	r3, r2
 8004392:	4601      	mov	r1, r0
 8004394:	462a      	mov	r2, r5
 8004396:	6820      	ldr	r0, [r4, #0]
 8004398:	bc30      	pop	{r4, r5}
 800439a:	f7ff bfd9 	b.w	8004350 <_vsprintf_r>
 800439e:	bf00      	nop

080043a0 <_svfprintf_r>:
 80043a0:	e92d 4ff0 	stmdb	sp!, {r4, r5, r6, r7, r8, r9, sl, fp, lr}
 80043a4:	b0c9      	sub	sp, #292	; 0x124
 80043a6:	4691      	mov	r9, r2
 80043a8:	9314      	str	r3, [sp, #80]	; 0x50
 80043aa:	910b      	str	r1, [sp, #44]	; 0x2c
 80043ac:	900e      	str	r0, [sp, #56]	; 0x38
 80043ae:	f002 fafb 	bl	80069a8 <_localeconv_r>
 80043b2:	6800      	ldr	r0, [r0, #0]
 80043b4:	901a      	str	r0, [sp, #104]	; 0x68
 80043b6:	f003 fc67 	bl	8007c88 <strlen>
 80043ba:	9c0b      	ldr	r4, [sp, #44]	; 0x2c
 80043bc:	89a3      	ldrh	r3, [r4, #12]
 80043be:	901d      	str	r0, [sp, #116]	; 0x74
 80043c0:	0618      	lsls	r0, r3, #24
 80043c2:	d503      	bpl.n	80043cc <_svfprintf_r+0x2c>
 80043c4:	6923      	ldr	r3, [r4, #16]
 80043c6:	2b00      	cmp	r3, #0
 80043c8:	f001 8079 	beq.w	80054be <_svfprintf_r+0x111e>
 80043cc:	f24a 4574 	movw	r5, #42100	; 0xa474
 80043d0:	ac38      	add	r4, sp, #224	; 0xe0
 80043d2:	f6c0 0500 	movt	r5, #2048	; 0x800
 80043d6:	9515      	str	r5, [sp, #84]	; 0x54
 80043d8:	f10d 05df 	add.w	r5, sp, #223	; 0xdf
 80043dc:	9508      	str	r5, [sp, #32]
 80043de:	9d15      	ldr	r5, [sp, #84]	; 0x54
 80043e0:	af38      	add	r7, sp, #224	; 0xe0
 80043e2:	9409      	str	r4, [sp, #36]	; 0x24
 80043e4:	f64a 1440 	movw	r4, #43328	; 0xa940
 80043e8:	f105 0610 	add.w	r6, r5, #16
 80043ec:	9d08      	ldr	r5, [sp, #32]
 80043ee:	2300      	movs	r3, #0
 80043f0:	f6c0 0400 	movt	r4, #2048	; 0x800
 80043f4:	9311      	str	r3, [sp, #68]	; 0x44
 80043f6:	9417      	str	r4, [sp, #92]	; 0x5c
 80043f8:	1b7c      	subs	r4, r7, r5
 80043fa:	931b      	str	r3, [sp, #108]	; 0x6c
 80043fc:	931c      	str	r3, [sp, #112]	; 0x70
 80043fe:	9319      	str	r3, [sp, #100]	; 0x64
 8004400:	931e      	str	r3, [sp, #120]	; 0x78
 8004402:	9312      	str	r3, [sp, #72]	; 0x48
 8004404:	9421      	str	r4, [sp, #132]	; 0x84
 8004406:	932d      	str	r3, [sp, #180]	; 0xb4
 8004408:	932c      	str	r3, [sp, #176]	; 0xb0
 800440a:	972b      	str	r7, [sp, #172]	; 0xac
 800440c:	f899 3000 	ldrb.w	r3, [r9]
 8004410:	2b25      	cmp	r3, #37	; 0x25
 8004412:	bf18      	it	ne
 8004414:	2b00      	cmpne	r3, #0
 8004416:	f000 80b3 	beq.w	8004580 <_svfprintf_r+0x1e0>
 800441a:	f109 0201 	add.w	r2, r9, #1
 800441e:	4614      	mov	r4, r2
 8004420:	3201      	adds	r2, #1
 8004422:	7823      	ldrb	r3, [r4, #0]
 8004424:	2b25      	cmp	r3, #37	; 0x25
 8004426:	bf18      	it	ne
 8004428:	2b00      	cmpne	r3, #0
 800442a:	d1f8      	bne.n	800441e <_svfprintf_r+0x7e>
 800442c:	ebb4 0509 	subs.w	r5, r4, r9
 8004430:	d00f      	beq.n	8004452 <_svfprintf_r+0xb2>
 8004432:	9b2c      	ldr	r3, [sp, #176]	; 0xb0
 8004434:	9a2d      	ldr	r2, [sp, #180]	; 0xb4
 8004436:	3301      	adds	r3, #1
 8004438:	f8c7 9000 	str.w	r9, [r7]
 800443c:	2b07      	cmp	r3, #7
 800443e:	607d      	str	r5, [r7, #4]
 8004440:	442a      	add	r2, r5
 8004442:	932c      	str	r3, [sp, #176]	; 0xb0
 8004444:	922d      	str	r2, [sp, #180]	; 0xb4
 8004446:	bfd8      	it	le
 8004448:	3708      	addle	r7, #8
 800444a:	dc7f      	bgt.n	800454c <_svfprintf_r+0x1ac>
 800444c:	9812      	ldr	r0, [sp, #72]	; 0x48
 800444e:	4428      	add	r0, r5
 8004450:	9012      	str	r0, [sp, #72]	; 0x48
 8004452:	7823      	ldrb	r3, [r4, #0]
 8004454:	2b00      	cmp	r3, #0
 8004456:	f000 8081 	beq.w	800455c <_svfprintf_r+0x1bc>
 800445a:	2300      	movs	r3, #0
 800445c:	f88d 308f 	strb.w	r3, [sp, #143]	; 0x8f
 8004460:	461a      	mov	r2, r3
 8004462:	9313      	str	r3, [sp, #76]	; 0x4c
 8004464:	930a      	str	r3, [sp, #40]	; 0x28
 8004466:	f104 0901 	add.w	r9, r4, #1
 800446a:	7863      	ldrb	r3, [r4, #1]
 800446c:	f04f 34ff 	mov.w	r4, #4294967295
 8004470:	940c      	str	r4, [sp, #48]	; 0x30
 8004472:	f109 0901 	add.w	r9, r9, #1
 8004476:	f1a3 0120 	sub.w	r1, r3, #32
 800447a:	2958      	cmp	r1, #88	; 0x58
 800447c:	f200 840a 	bhi.w	8004c94 <_svfprintf_r+0x8f4>
 8004480:	e8df f011 	tbh	[pc, r1, lsl #1]
 8004484:	0408038e 	streq	r0, [r8], #-910	; 0xfffffc72
 8004488:	03950408 	orrseq	r0, r5, #8, 8	; 0x8000000
 800448c:	04080408 	streq	r0, [r8], #-1032	; 0xfffffbf8
 8004490:	04080408 	streq	r0, [r8], #-1032	; 0xfffffbf8
 8004494:	04080408 	streq	r0, [r8], #-1032	; 0xfffffbf8
 8004498:	0348039c 	movteq	r0, #33692	; 0x839c
 800449c:	005d0408 	subseq	r0, sp, r8, lsl #8
 80044a0:	04080235 	streq	r0, [r8], #-565	; 0xfffffdcb
 80044a4:	03f603ef 	mvnseq	r0, #-1140850685	; 0xbc000003
 80044a8:	03f603f6 	mvnseq	r0, #-671088637	; 0xd8000003
 80044ac:	03f603f6 	mvnseq	r0, #-671088637	; 0xd8000003
 80044b0:	03f603f6 	mvnseq	r0, #-671088637	; 0xd8000003
 80044b4:	03f603f6 	mvnseq	r0, #-671088637	; 0xd8000003
 80044b8:	04080408 	streq	r0, [r8], #-1032	; 0xfffffbf8
 80044bc:	04080408 	streq	r0, [r8], #-1032	; 0xfffffbf8
 80044c0:	04080408 	streq	r0, [r8], #-1032	; 0xfffffbf8
 80044c4:	04080408 	streq	r0, [r8], #-1032	; 0xfffffbf8
 80044c8:	04080408 	streq	r0, [r8], #-1032	; 0xfffffbf8
 80044cc:	0290026e 	addseq	r0, r0, #-536870906	; 0xe0000006
 80044d0:	02900408 	addseq	r0, r0, #8, 8	; 0x8000000
 80044d4:	04080408 	streq	r0, [r8], #-1032	; 0xfffffbf8
 80044d8:	04080408 	streq	r0, [r8], #-1032	; 0xfffffbf8
 80044dc:	040802cd 	streq	r0, [r8], #-717	; 0xfffffd33
 80044e0:	02d40408 	sbcseq	r0, r4, #8, 8	; 0x8000000
 80044e4:	04080408 	streq	r0, [r8], #-1032	; 0xfffffbf8
 80044e8:	04080408 	streq	r0, [r8], #-1032	; 0xfffffbf8
 80044ec:	02550408 	subseq	r0, r5, #8, 8	; 0x8000000
 80044f0:	04080408 	streq	r0, [r8], #-1032	; 0xfffffbf8
 80044f4:	040803bc 	streq	r0, [r8], #-956	; 0xfffffc44
 80044f8:	04080408 	streq	r0, [r8], #-1032	; 0xfffffbf8
 80044fc:	04080408 	streq	r0, [r8], #-1032	; 0xfffffbf8
 8004500:	04080408 	streq	r0, [r8], #-1032	; 0xfffffbf8
 8004504:	04080408 	streq	r0, [r8], #-1032	; 0xfffffbf8
 8004508:	03a80408 			; <UNDEFINED> instruction: 0x03a80408
 800450c:	029003d7 	addseq	r0, r0, #1543503875	; 0x5c000003
 8004510:	02900290 	addseq	r0, r0, #144, 4
 8004514:	03d70387 	bicseq	r0, r7, #469762050	; 0x1c000002
 8004518:	04080408 	streq	r0, [r8], #-1032	; 0xfffffbf8
 800451c:	0408034c 	streq	r0, [r8], #-844	; 0xfffffcb4
 8004520:	0224035e 	eoreq	r0, r4, #2013265921	; 0x78000001
 8004524:	02f00370 	rscseq	r0, r0, #112, 6	; 0xc0000001
 8004528:	02f70408 	rscseq	r0, r7, #8, 8	; 0x8000000
 800452c:	00800408 	addeq	r0, r0, r8, lsl #8
 8004530:	04080408 	streq	r0, [r8], #-1032	; 0xfffffbf8
 8004534:	9c130320 	ldcls	3, cr0, [r3], {32}
 8004538:	9314      	str	r3, [sp, #80]	; 0x50
 800453a:	4264      	negs	r4, r4
 800453c:	9413      	str	r4, [sp, #76]	; 0x4c
 800453e:	9d0a      	ldr	r5, [sp, #40]	; 0x28
 8004540:	f045 0504 	orr.w	r5, r5, #4
 8004544:	950a      	str	r5, [sp, #40]	; 0x28
 8004546:	f899 3000 	ldrb.w	r3, [r9]
 800454a:	e792      	b.n	8004472 <_svfprintf_r+0xd2>
 800454c:	980e      	ldr	r0, [sp, #56]	; 0x38
 800454e:	aa2b      	add	r2, sp, #172	; 0xac
 8004550:	990b      	ldr	r1, [sp, #44]	; 0x2c
 8004552:	f003 fbc9 	bl	8007ce8 <__ssprint_r>
 8004556:	b940      	cbnz	r0, 800456a <_svfprintf_r+0x1ca>
 8004558:	af38      	add	r7, sp, #224	; 0xe0
 800455a:	e777      	b.n	800444c <_svfprintf_r+0xac>
 800455c:	9b2d      	ldr	r3, [sp, #180]	; 0xb4
 800455e:	b123      	cbz	r3, 800456a <_svfprintf_r+0x1ca>
 8004560:	980e      	ldr	r0, [sp, #56]	; 0x38
 8004562:	aa2b      	add	r2, sp, #172	; 0xac
 8004564:	990b      	ldr	r1, [sp, #44]	; 0x2c
 8004566:	f003 fbbf 	bl	8007ce8 <__ssprint_r>
 800456a:	9c0b      	ldr	r4, [sp, #44]	; 0x2c
 800456c:	9812      	ldr	r0, [sp, #72]	; 0x48
 800456e:	89a3      	ldrh	r3, [r4, #12]
 8004570:	f013 0f40 	tst.w	r3, #64	; 0x40
 8004574:	bf18      	it	ne
 8004576:	f04f 30ff 	movne.w	r0, #4294967295
 800457a:	b049      	add	sp, #292	; 0x124
 800457c:	e8bd 8ff0 	ldmia.w	sp!, {r4, r5, r6, r7, r8, r9, sl, fp, pc}
 8004580:	464c      	mov	r4, r9
 8004582:	e766      	b.n	8004452 <_svfprintf_r+0xb2>
 8004584:	9c0a      	ldr	r4, [sp, #40]	; 0x28
 8004586:	9316      	str	r3, [sp, #88]	; 0x58
 8004588:	06a3      	lsls	r3, r4, #26
 800458a:	f140 81d9 	bpl.w	8004940 <_svfprintf_r+0x5a0>
 800458e:	9d14      	ldr	r5, [sp, #80]	; 0x50
 8004590:	2301      	movs	r3, #1
 8004592:	1dea      	adds	r2, r5, #7
 8004594:	f022 0207 	bic.w	r2, r2, #7
 8004598:	f102 0408 	add.w	r4, r2, #8
 800459c:	9414      	str	r4, [sp, #80]	; 0x50
 800459e:	e9d2 4500 	ldrd	r4, r5, [r2]
 80045a2:	f04f 0a00 	mov.w	sl, #0
 80045a6:	f88d a08f 	strb.w	sl, [sp, #143]	; 0x8f
 80045aa:	980c      	ldr	r0, [sp, #48]	; 0x30
 80045ac:	2800      	cmp	r0, #0
 80045ae:	980c      	ldr	r0, [sp, #48]	; 0x30
 80045b0:	bfa2      	ittt	ge
 80045b2:	990a      	ldrge	r1, [sp, #40]	; 0x28
 80045b4:	f021 0180 	bicge.w	r1, r1, #128	; 0x80
 80045b8:	910a      	strge	r1, [sp, #40]	; 0x28
 80045ba:	ea54 0205 	orrs.w	r2, r4, r5
 80045be:	bf0c      	ite	eq
 80045c0:	2200      	moveq	r2, #0
 80045c2:	2201      	movne	r2, #1
 80045c4:	2800      	cmp	r0, #0
 80045c6:	bf18      	it	ne
 80045c8:	f042 0201 	orrne.w	r2, r2, #1
 80045cc:	2a00      	cmp	r2, #0
 80045ce:	f000 83e5 	beq.w	8004d9c <_svfprintf_r+0x9fc>
 80045d2:	2b01      	cmp	r3, #1
 80045d4:	f000 8509 	beq.w	8004fea <_svfprintf_r+0xc4a>
 80045d8:	2b02      	cmp	r3, #2
 80045da:	f10d 02df 	add.w	r2, sp, #223	; 0xdf
 80045de:	f040 8159 	bne.w	8004894 <_svfprintf_r+0x4f4>
 80045e2:	f8dd c064 	ldr.w	ip, [sp, #100]	; 0x64
 80045e6:	f004 010f 	and.w	r1, r4, #15
 80045ea:	0923      	lsrs	r3, r4, #4
 80045ec:	ea43 7305 	orr.w	r3, r3, r5, lsl #28
 80045f0:	0928      	lsrs	r0, r5, #4
 80045f2:	f81c 1001 	ldrb.w	r1, [ip, r1]
 80045f6:	461c      	mov	r4, r3
 80045f8:	4605      	mov	r5, r0
 80045fa:	4690      	mov	r8, r2
 80045fc:	ea54 0005 	orrs.w	r0, r4, r5
 8004600:	f102 32ff 	add.w	r2, r2, #4294967295
 8004604:	f888 1000 	strb.w	r1, [r8]
 8004608:	d1ed      	bne.n	80045e6 <_svfprintf_r+0x246>
 800460a:	9b09      	ldr	r3, [sp, #36]	; 0x24
 800460c:	ebc8 0303 	rsb	r3, r8, r3
 8004610:	9310      	str	r3, [sp, #64]	; 0x40
 8004612:	9c0c      	ldr	r4, [sp, #48]	; 0x30
 8004614:	9d10      	ldr	r5, [sp, #64]	; 0x40
 8004616:	42a5      	cmp	r5, r4
 8004618:	bfb8      	it	lt
 800461a:	4625      	movlt	r5, r4
 800461c:	2400      	movs	r4, #0
 800461e:	950d      	str	r5, [sp, #52]	; 0x34
 8004620:	9418      	str	r4, [sp, #96]	; 0x60
 8004622:	f1ba 0f00 	cmp.w	sl, #0
 8004626:	d002      	beq.n	800462e <_svfprintf_r+0x28e>
 8004628:	9d0d      	ldr	r5, [sp, #52]	; 0x34
 800462a:	3501      	adds	r5, #1
 800462c:	950d      	str	r5, [sp, #52]	; 0x34
 800462e:	9b0a      	ldr	r3, [sp, #40]	; 0x28
 8004630:	f013 0302 	ands.w	r3, r3, #2
 8004634:	930f      	str	r3, [sp, #60]	; 0x3c
 8004636:	bf1e      	ittt	ne
 8004638:	9c0d      	ldrne	r4, [sp, #52]	; 0x34
 800463a:	3402      	addne	r4, #2
 800463c:	940d      	strne	r4, [sp, #52]	; 0x34
 800463e:	9c0a      	ldr	r4, [sp, #40]	; 0x28
 8004640:	f014 0584 	ands.w	r5, r4, #132	; 0x84
 8004644:	f040 8346 	bne.w	8004cd4 <_svfprintf_r+0x934>
 8004648:	9c13      	ldr	r4, [sp, #76]	; 0x4c
 800464a:	980d      	ldr	r0, [sp, #52]	; 0x34
 800464c:	ebc0 0b04 	rsb	fp, r0, r4
 8004650:	f1bb 0f00 	cmp.w	fp, #0
 8004654:	f340 833e 	ble.w	8004cd4 <_svfprintf_r+0x934>
 8004658:	f1bb 0f10 	cmp.w	fp, #16
 800465c:	f24a 4a74 	movw	sl, #42100	; 0xa474
 8004660:	992d      	ldr	r1, [sp, #180]	; 0xb4
 8004662:	bfdc      	itt	le
 8004664:	f6c0 0a00 	movtle	sl, #2048	; 0x800
 8004668:	9a2c      	ldrle	r2, [sp, #176]	; 0xb0
 800466a:	dd32      	ble.n	80046d2 <_svfprintf_r+0x332>
 800466c:	f6c0 0a00 	movt	sl, #2048	; 0x800
 8004670:	f8cd 807c 	str.w	r8, [sp, #124]	; 0x7c
 8004674:	9520      	str	r5, [sp, #128]	; 0x80
 8004676:	46d8      	mov	r8, fp
 8004678:	9a2c      	ldr	r2, [sp, #176]	; 0xb0
 800467a:	46d3      	mov	fp, sl
 800467c:	2410      	movs	r4, #16
 800467e:	46ca      	mov	sl, r9
 8004680:	9d15      	ldr	r5, [sp, #84]	; 0x54
 8004682:	f8dd 902c 	ldr.w	r9, [sp, #44]	; 0x2c
 8004686:	e004      	b.n	8004692 <_svfprintf_r+0x2f2>
 8004688:	f1a8 0810 	sub.w	r8, r8, #16
 800468c:	f1b8 0f10 	cmp.w	r8, #16
 8004690:	dd19      	ble.n	80046c6 <_svfprintf_r+0x326>
 8004692:	3201      	adds	r2, #1
 8004694:	3110      	adds	r1, #16
 8004696:	2a07      	cmp	r2, #7
 8004698:	603d      	str	r5, [r7, #0]
 800469a:	607c      	str	r4, [r7, #4]
 800469c:	f107 0708 	add.w	r7, r7, #8
 80046a0:	922c      	str	r2, [sp, #176]	; 0xb0
 80046a2:	912d      	str	r1, [sp, #180]	; 0xb4
 80046a4:	ddf0      	ble.n	8004688 <_svfprintf_r+0x2e8>
 80046a6:	980e      	ldr	r0, [sp, #56]	; 0x38
 80046a8:	4649      	mov	r1, r9
 80046aa:	aa2b      	add	r2, sp, #172	; 0xac
 80046ac:	af38      	add	r7, sp, #224	; 0xe0
 80046ae:	f003 fb1b 	bl	8007ce8 <__ssprint_r>
 80046b2:	2800      	cmp	r0, #0
 80046b4:	f47f af59 	bne.w	800456a <_svfprintf_r+0x1ca>
 80046b8:	f1a8 0810 	sub.w	r8, r8, #16
 80046bc:	992d      	ldr	r1, [sp, #180]	; 0xb4
 80046be:	f1b8 0f10 	cmp.w	r8, #16
 80046c2:	9a2c      	ldr	r2, [sp, #176]	; 0xb0
 80046c4:	dce5      	bgt.n	8004692 <_svfprintf_r+0x2f2>
 80046c6:	46d1      	mov	r9, sl
 80046c8:	9d20      	ldr	r5, [sp, #128]	; 0x80
 80046ca:	46da      	mov	sl, fp
 80046cc:	46c3      	mov	fp, r8
 80046ce:	f8dd 807c 	ldr.w	r8, [sp, #124]	; 0x7c
 80046d2:	3201      	adds	r2, #1
 80046d4:	eb0b 0401 	add.w	r4, fp, r1
 80046d8:	2a07      	cmp	r2, #7
 80046da:	922c      	str	r2, [sp, #176]	; 0xb0
 80046dc:	942d      	str	r4, [sp, #180]	; 0xb4
 80046de:	e887 0c00 	stmia.w	r7, {sl, fp}
 80046e2:	f300 82ec 	bgt.w	8004cbe <_svfprintf_r+0x91e>
 80046e6:	f89d a08f 	ldrb.w	sl, [sp, #143]	; 0x8f
 80046ea:	3708      	adds	r7, #8
 80046ec:	f1ba 0f00 	cmp.w	sl, #0
 80046f0:	d00e      	beq.n	8004710 <_svfprintf_r+0x370>
 80046f2:	9b2c      	ldr	r3, [sp, #176]	; 0xb0
 80046f4:	f10d 028f 	add.w	r2, sp, #143	; 0x8f
 80046f8:	3401      	adds	r4, #1
 80046fa:	603a      	str	r2, [r7, #0]
 80046fc:	3301      	adds	r3, #1
 80046fe:	2201      	movs	r2, #1
 8004700:	2b07      	cmp	r3, #7
 8004702:	607a      	str	r2, [r7, #4]
 8004704:	942d      	str	r4, [sp, #180]	; 0xb4
 8004706:	bfd8      	it	le
 8004708:	3708      	addle	r7, #8
 800470a:	932c      	str	r3, [sp, #176]	; 0xb0
 800470c:	f300 8402 	bgt.w	8004f14 <_svfprintf_r+0xb74>
 8004710:	9b0f      	ldr	r3, [sp, #60]	; 0x3c
 8004712:	b16b      	cbz	r3, 8004730 <_svfprintf_r+0x390>
 8004714:	9b2c      	ldr	r3, [sp, #176]	; 0xb0
 8004716:	aa24      	add	r2, sp, #144	; 0x90
 8004718:	3402      	adds	r4, #2
 800471a:	603a      	str	r2, [r7, #0]
 800471c:	3301      	adds	r3, #1
 800471e:	2202      	movs	r2, #2
 8004720:	2b07      	cmp	r3, #7
 8004722:	607a      	str	r2, [r7, #4]
 8004724:	942d      	str	r4, [sp, #180]	; 0xb4
 8004726:	bfd8      	it	le
 8004728:	3708      	addle	r7, #8
 800472a:	932c      	str	r3, [sp, #176]	; 0xb0
 800472c:	f300 83fe 	bgt.w	8004f2c <_svfprintf_r+0xb8c>
 8004730:	2d80      	cmp	r5, #128	; 0x80
 8004732:	f000 8346 	beq.w	8004dc2 <_svfprintf_r+0xa22>
 8004736:	9d0c      	ldr	r5, [sp, #48]	; 0x30
 8004738:	9b10      	ldr	r3, [sp, #64]	; 0x40
 800473a:	ebc3 0a05 	rsb	sl, r3, r5
 800473e:	f1ba 0f00 	cmp.w	sl, #0
 8004742:	dd43      	ble.n	80047cc <_svfprintf_r+0x42c>
 8004744:	f1ba 0f10 	cmp.w	sl, #16
 8004748:	9b2c      	ldr	r3, [sp, #176]	; 0xb0
 800474a:	bfdc      	itt	le
 800474c:	4d94      	ldrle	r5, [pc, #592]	; (80049a0 <_svfprintf_r+0x600>)
 800474e:	950f      	strle	r5, [sp, #60]	; 0x3c
 8004750:	dd27      	ble.n	80047a2 <_svfprintf_r+0x402>
 8004752:	4893      	ldr	r0, [pc, #588]	; (80049a0 <_svfprintf_r+0x600>)
 8004754:	4622      	mov	r2, r4
 8004756:	2510      	movs	r5, #16
 8004758:	f8dd b038 	ldr.w	fp, [sp, #56]	; 0x38
 800475c:	9c0b      	ldr	r4, [sp, #44]	; 0x2c
 800475e:	900f      	str	r0, [sp, #60]	; 0x3c
 8004760:	e004      	b.n	800476c <_svfprintf_r+0x3cc>
 8004762:	f1aa 0a10 	sub.w	sl, sl, #16
 8004766:	f1ba 0f10 	cmp.w	sl, #16
 800476a:	dd19      	ble.n	80047a0 <_svfprintf_r+0x400>
 800476c:	3301      	adds	r3, #1
 800476e:	3210      	adds	r2, #16
 8004770:	2b07      	cmp	r3, #7
 8004772:	603e      	str	r6, [r7, #0]
 8004774:	607d      	str	r5, [r7, #4]
 8004776:	f107 0708 	add.w	r7, r7, #8
 800477a:	932c      	str	r3, [sp, #176]	; 0xb0
 800477c:	922d      	str	r2, [sp, #180]	; 0xb4
 800477e:	ddf0      	ble.n	8004762 <_svfprintf_r+0x3c2>
 8004780:	4658      	mov	r0, fp
 8004782:	4621      	mov	r1, r4
 8004784:	aa2b      	add	r2, sp, #172	; 0xac
 8004786:	af38      	add	r7, sp, #224	; 0xe0
 8004788:	f003 faae 	bl	8007ce8 <__ssprint_r>
 800478c:	2800      	cmp	r0, #0
 800478e:	f47f aeec 	bne.w	800456a <_svfprintf_r+0x1ca>
 8004792:	f1aa 0a10 	sub.w	sl, sl, #16
 8004796:	9a2d      	ldr	r2, [sp, #180]	; 0xb4
 8004798:	f1ba 0f10 	cmp.w	sl, #16
 800479c:	9b2c      	ldr	r3, [sp, #176]	; 0xb0
 800479e:	dce5      	bgt.n	800476c <_svfprintf_r+0x3cc>
 80047a0:	4614      	mov	r4, r2
 80047a2:	3301      	adds	r3, #1
 80047a4:	9d0f      	ldr	r5, [sp, #60]	; 0x3c
 80047a6:	2b07      	cmp	r3, #7
 80047a8:	4454      	add	r4, sl
 80047aa:	932c      	str	r3, [sp, #176]	; 0xb0
 80047ac:	e887 0420 	stmia.w	r7, {r5, sl}
 80047b0:	bfd8      	it	le
 80047b2:	3708      	addle	r7, #8
 80047b4:	942d      	str	r4, [sp, #180]	; 0xb4
 80047b6:	dd09      	ble.n	80047cc <_svfprintf_r+0x42c>
 80047b8:	980e      	ldr	r0, [sp, #56]	; 0x38
 80047ba:	aa2b      	add	r2, sp, #172	; 0xac
 80047bc:	990b      	ldr	r1, [sp, #44]	; 0x2c
 80047be:	f003 fa93 	bl	8007ce8 <__ssprint_r>
 80047c2:	2800      	cmp	r0, #0
 80047c4:	f47f aed1 	bne.w	800456a <_svfprintf_r+0x1ca>
 80047c8:	9c2d      	ldr	r4, [sp, #180]	; 0xb4
 80047ca:	af38      	add	r7, sp, #224	; 0xe0
 80047cc:	9d0a      	ldr	r5, [sp, #40]	; 0x28
 80047ce:	05eb      	lsls	r3, r5, #23
 80047d0:	f100 8282 	bmi.w	8004cd8 <_svfprintf_r+0x938>
 80047d4:	9b2c      	ldr	r3, [sp, #176]	; 0xb0
 80047d6:	9d10      	ldr	r5, [sp, #64]	; 0x40
 80047d8:	3301      	adds	r3, #1
 80047da:	f8c7 8000 	str.w	r8, [r7]
 80047de:	2b07      	cmp	r3, #7
 80047e0:	442c      	add	r4, r5
 80047e2:	607d      	str	r5, [r7, #4]
 80047e4:	942d      	str	r4, [sp, #180]	; 0xb4
 80047e6:	932c      	str	r3, [sp, #176]	; 0xb0
 80047e8:	f300 837a 	bgt.w	8004ee0 <_svfprintf_r+0xb40>
 80047ec:	3708      	adds	r7, #8
 80047ee:	9d0a      	ldr	r5, [sp, #40]	; 0x28
 80047f0:	076b      	lsls	r3, r5, #29
 80047f2:	d540      	bpl.n	8004876 <_svfprintf_r+0x4d6>
 80047f4:	9813      	ldr	r0, [sp, #76]	; 0x4c
 80047f6:	990d      	ldr	r1, [sp, #52]	; 0x34
 80047f8:	1a45      	subs	r5, r0, r1
 80047fa:	2d00      	cmp	r5, #0
 80047fc:	dd3b      	ble.n	8004876 <_svfprintf_r+0x4d6>
 80047fe:	2d10      	cmp	r5, #16
 8004800:	f24a 4a74 	movw	sl, #42100	; 0xa474
 8004804:	9b2c      	ldr	r3, [sp, #176]	; 0xb0
 8004806:	f6c0 0a00 	movt	sl, #2048	; 0x800
 800480a:	dd22      	ble.n	8004852 <_svfprintf_r+0x4b2>
 800480c:	4622      	mov	r2, r4
 800480e:	f04f 0810 	mov.w	r8, #16
 8004812:	f8dd b038 	ldr.w	fp, [sp, #56]	; 0x38
 8004816:	9c15      	ldr	r4, [sp, #84]	; 0x54
 8004818:	e002      	b.n	8004820 <_svfprintf_r+0x480>
 800481a:	3d10      	subs	r5, #16
 800481c:	2d10      	cmp	r5, #16
 800481e:	dd17      	ble.n	8004850 <_svfprintf_r+0x4b0>
 8004820:	3301      	adds	r3, #1
 8004822:	3210      	adds	r2, #16
 8004824:	2b07      	cmp	r3, #7
 8004826:	e887 0110 	stmia.w	r7, {r4, r8}
 800482a:	932c      	str	r3, [sp, #176]	; 0xb0
 800482c:	f107 0708 	add.w	r7, r7, #8
 8004830:	922d      	str	r2, [sp, #180]	; 0xb4
 8004832:	ddf2      	ble.n	800481a <_svfprintf_r+0x47a>
 8004834:	4658      	mov	r0, fp
 8004836:	990b      	ldr	r1, [sp, #44]	; 0x2c
 8004838:	aa2b      	add	r2, sp, #172	; 0xac
 800483a:	af38      	add	r7, sp, #224	; 0xe0
 800483c:	f003 fa54 	bl	8007ce8 <__ssprint_r>
 8004840:	2800      	cmp	r0, #0
 8004842:	f47f ae92 	bne.w	800456a <_svfprintf_r+0x1ca>
 8004846:	3d10      	subs	r5, #16
 8004848:	9a2d      	ldr	r2, [sp, #180]	; 0xb4
 800484a:	2d10      	cmp	r5, #16
 800484c:	9b2c      	ldr	r3, [sp, #176]	; 0xb0
 800484e:	dce7      	bgt.n	8004820 <_svfprintf_r+0x480>
 8004850:	4614      	mov	r4, r2
 8004852:	3301      	adds	r3, #1
 8004854:	442c      	add	r4, r5
 8004856:	2b07      	cmp	r3, #7
 8004858:	932c      	str	r3, [sp, #176]	; 0xb0
 800485a:	942d      	str	r4, [sp, #180]	; 0xb4
 800485c:	f8c7 a000 	str.w	sl, [r7]
 8004860:	607d      	str	r5, [r7, #4]
 8004862:	dd08      	ble.n	8004876 <_svfprintf_r+0x4d6>
 8004864:	980e      	ldr	r0, [sp, #56]	; 0x38
 8004866:	aa2b      	add	r2, sp, #172	; 0xac
 8004868:	990b      	ldr	r1, [sp, #44]	; 0x2c
 800486a:	f003 fa3d 	bl	8007ce8 <__ssprint_r>
 800486e:	2800      	cmp	r0, #0
 8004870:	f47f ae7b 	bne.w	800456a <_svfprintf_r+0x1ca>
 8004874:	9c2d      	ldr	r4, [sp, #180]	; 0xb4
 8004876:	9d12      	ldr	r5, [sp, #72]	; 0x48
 8004878:	990d      	ldr	r1, [sp, #52]	; 0x34
 800487a:	9813      	ldr	r0, [sp, #76]	; 0x4c
 800487c:	4281      	cmp	r1, r0
 800487e:	bfac      	ite	ge
 8004880:	186d      	addge	r5, r5, r1
 8004882:	182d      	addlt	r5, r5, r0
 8004884:	9512      	str	r5, [sp, #72]	; 0x48
 8004886:	2c00      	cmp	r4, #0
 8004888:	f040 8335 	bne.w	8004ef6 <_svfprintf_r+0xb56>
 800488c:	2300      	movs	r3, #0
 800488e:	af38      	add	r7, sp, #224	; 0xe0
 8004890:	932c      	str	r3, [sp, #176]	; 0xb0
 8004892:	e5bb      	b.n	800440c <_svfprintf_r+0x6c>
 8004894:	08e3      	lsrs	r3, r4, #3
 8004896:	08e9      	lsrs	r1, r5, #3
 8004898:	ea43 7345 	orr.w	r3, r3, r5, lsl #29
 800489c:	4690      	mov	r8, r2
 800489e:	460d      	mov	r5, r1
 80048a0:	f004 0207 	and.w	r2, r4, #7
 80048a4:	461c      	mov	r4, r3
 80048a6:	f102 0330 	add.w	r3, r2, #48	; 0x30
 80048aa:	ea54 0105 	orrs.w	r1, r4, r5
 80048ae:	f108 32ff 	add.w	r2, r8, #4294967295
 80048b2:	f888 3000 	strb.w	r3, [r8]
 80048b6:	d1ed      	bne.n	8004894 <_svfprintf_r+0x4f4>
 80048b8:	9c0a      	ldr	r4, [sp, #40]	; 0x28
 80048ba:	4641      	mov	r1, r8
 80048bc:	07e0      	lsls	r0, r4, #31
 80048be:	f100 84f5 	bmi.w	80052ac <_svfprintf_r+0xf0c>
 80048c2:	9d09      	ldr	r5, [sp, #36]	; 0x24
 80048c4:	ebc8 0505 	rsb	r5, r8, r5
 80048c8:	9510      	str	r5, [sp, #64]	; 0x40
 80048ca:	e6a2      	b.n	8004612 <_svfprintf_r+0x272>
 80048cc:	9d0a      	ldr	r5, [sp, #40]	; 0x28
 80048ce:	9316      	str	r3, [sp, #88]	; 0x58
 80048d0:	f015 0320 	ands.w	r3, r5, #32
 80048d4:	f000 80b4 	beq.w	8004a40 <_svfprintf_r+0x6a0>
 80048d8:	9c14      	ldr	r4, [sp, #80]	; 0x50
 80048da:	2300      	movs	r3, #0
 80048dc:	1de2      	adds	r2, r4, #7
 80048de:	f022 0207 	bic.w	r2, r2, #7
 80048e2:	f102 0508 	add.w	r5, r2, #8
 80048e6:	9514      	str	r5, [sp, #80]	; 0x50
 80048e8:	e9d2 4500 	ldrd	r4, r5, [r2]
 80048ec:	e659      	b.n	80045a2 <_svfprintf_r+0x202>
 80048ee:	f899 3000 	ldrb.w	r3, [r9]
 80048f2:	f109 0401 	add.w	r4, r9, #1
 80048f6:	2b2a      	cmp	r3, #42	; 0x2a
 80048f8:	f000 8791 	beq.w	800581e <_svfprintf_r+0x147e>
 80048fc:	f1a3 0130 	sub.w	r1, r3, #48	; 0x30
 8004900:	2909      	cmp	r1, #9
 8004902:	bf82      	ittt	hi
 8004904:	46a1      	movhi	r9, r4
 8004906:	2400      	movhi	r4, #0
 8004908:	940c      	strhi	r4, [sp, #48]	; 0x30
 800490a:	f63f adb4 	bhi.w	8004476 <_svfprintf_r+0xd6>
 800490e:	2000      	movs	r0, #0
 8004910:	eb00 0080 	add.w	r0, r0, r0, lsl #2
 8004914:	f814 3b01 	ldrb.w	r3, [r4], #1
 8004918:	eb01 0040 	add.w	r0, r1, r0, lsl #1
 800491c:	f1a3 0130 	sub.w	r1, r3, #48	; 0x30
 8004920:	2909      	cmp	r1, #9
 8004922:	d9f5      	bls.n	8004910 <_svfprintf_r+0x570>
 8004924:	ea40 70e0 	orr.w	r0, r0, r0, asr #31
 8004928:	46a1      	mov	r9, r4
 800492a:	900c      	str	r0, [sp, #48]	; 0x30
 800492c:	e5a3      	b.n	8004476 <_svfprintf_r+0xd6>
 800492e:	9d0a      	ldr	r5, [sp, #40]	; 0x28
 8004930:	9316      	str	r3, [sp, #88]	; 0x58
 8004932:	f045 0510 	orr.w	r5, r5, #16
 8004936:	950a      	str	r5, [sp, #40]	; 0x28
 8004938:	9c0a      	ldr	r4, [sp, #40]	; 0x28
 800493a:	06a3      	lsls	r3, r4, #26
 800493c:	f53f ae27 	bmi.w	800458e <_svfprintf_r+0x1ee>
 8004940:	9d0a      	ldr	r5, [sp, #40]	; 0x28
 8004942:	06ed      	lsls	r5, r5, #27
 8004944:	f100 83c4 	bmi.w	80050d0 <_svfprintf_r+0xd30>
 8004948:	9c0a      	ldr	r4, [sp, #40]	; 0x28
 800494a:	0664      	lsls	r4, r4, #25
 800494c:	f140 83c0 	bpl.w	80050d0 <_svfprintf_r+0xd30>
 8004950:	9814      	ldr	r0, [sp, #80]	; 0x50
 8004952:	2500      	movs	r5, #0
 8004954:	2301      	movs	r3, #1
 8004956:	3004      	adds	r0, #4
 8004958:	f830 4c04 	ldrh.w	r4, [r0, #-4]
 800495c:	9014      	str	r0, [sp, #80]	; 0x50
 800495e:	e620      	b.n	80045a2 <_svfprintf_r+0x202>
 8004960:	9c0a      	ldr	r4, [sp, #40]	; 0x28
 8004962:	9316      	str	r3, [sp, #88]	; 0x58
 8004964:	f044 0410 	orr.w	r4, r4, #16
 8004968:	940a      	str	r4, [sp, #40]	; 0x28
 800496a:	9d0a      	ldr	r5, [sp, #40]	; 0x28
 800496c:	f88d 208f 	strb.w	r2, [sp, #143]	; 0x8f
 8004970:	06a9      	lsls	r1, r5, #26
 8004972:	f140 8165 	bpl.w	8004c40 <_svfprintf_r+0x8a0>
 8004976:	9c14      	ldr	r4, [sp, #80]	; 0x50
 8004978:	1de3      	adds	r3, r4, #7
 800497a:	f023 0307 	bic.w	r3, r3, #7
 800497e:	f103 0508 	add.w	r5, r3, #8
 8004982:	9514      	str	r5, [sp, #80]	; 0x50
 8004984:	e9d3 2300 	ldrd	r2, r3, [r3]
 8004988:	4614      	mov	r4, r2
 800498a:	461d      	mov	r5, r3
 800498c:	2a00      	cmp	r2, #0
 800498e:	f173 0000 	sbcs.w	r0, r3, #0
 8004992:	f2c0 83bb 	blt.w	800510c <_svfprintf_r+0xd6c>
 8004996:	f89d a08f 	ldrb.w	sl, [sp, #143]	; 0x8f
 800499a:	2301      	movs	r3, #1
 800499c:	e605      	b.n	80045aa <_svfprintf_r+0x20a>
 800499e:	bf00      	nop
 80049a0:	0800a484 	stmdaeq	r0, {r2, r7, sl, sp, pc}
 80049a4:	9c0a      	ldr	r4, [sp, #40]	; 0x28
 80049a6:	9316      	str	r3, [sp, #88]	; 0x58
 80049a8:	0725      	lsls	r5, r4, #28
 80049aa:	f88d 208f 	strb.w	r2, [sp, #143]	; 0x8f
 80049ae:	f140 84ab 	bpl.w	8005308 <_svfprintf_r+0xf68>
 80049b2:	9d14      	ldr	r5, [sp, #80]	; 0x50
 80049b4:	1deb      	adds	r3, r5, #7
 80049b6:	f023 0307 	bic.w	r3, r3, #7
 80049ba:	f103 0408 	add.w	r4, r3, #8
 80049be:	9414      	str	r4, [sp, #80]	; 0x50
 80049c0:	681d      	ldr	r5, [r3, #0]
 80049c2:	951b      	str	r5, [sp, #108]	; 0x6c
 80049c4:	685b      	ldr	r3, [r3, #4]
 80049c6:	931c      	str	r3, [sp, #112]	; 0x70
 80049c8:	981b      	ldr	r0, [sp, #108]	; 0x6c
 80049ca:	991c      	ldr	r1, [sp, #112]	; 0x70
 80049cc:	f003 f802 	bl	80079d4 <__fpclassifyd>
 80049d0:	2801      	cmp	r0, #1
 80049d2:	981b      	ldr	r0, [sp, #108]	; 0x6c
 80049d4:	f040 8478 	bne.w	80052c8 <_svfprintf_r+0xf28>
 80049d8:	2200      	movs	r2, #0
 80049da:	2300      	movs	r3, #0
 80049dc:	991c      	ldr	r1, [sp, #112]	; 0x70
 80049de:	f005 f953 	bl	8009c88 <__aeabi_dcmplt>
 80049e2:	2800      	cmp	r0, #0
 80049e4:	f040 864a 	bne.w	800567c <_svfprintf_r+0x12dc>
 80049e8:	f89d a08f 	ldrb.w	sl, [sp, #143]	; 0x8f
 80049ec:	2503      	movs	r5, #3
 80049ee:	2400      	movs	r4, #0
 80049f0:	f64a 1804 	movw	r8, #43268	; 0xa904
 80049f4:	f64a 1300 	movw	r3, #43264	; 0xa900
 80049f8:	950d      	str	r5, [sp, #52]	; 0x34
 80049fa:	f6c0 0800 	movt	r8, #2048	; 0x800
 80049fe:	9d0a      	ldr	r5, [sp, #40]	; 0x28
 8004a00:	f6c0 0300 	movt	r3, #2048	; 0x800
 8004a04:	940c      	str	r4, [sp, #48]	; 0x30
 8004a06:	9c16      	ldr	r4, [sp, #88]	; 0x58
 8004a08:	f025 0580 	bic.w	r5, r5, #128	; 0x80
 8004a0c:	950a      	str	r5, [sp, #40]	; 0x28
 8004a0e:	2503      	movs	r5, #3
 8004a10:	2c47      	cmp	r4, #71	; 0x47
 8004a12:	bfd8      	it	le
 8004a14:	4698      	movle	r8, r3
 8004a16:	9510      	str	r5, [sp, #64]	; 0x40
 8004a18:	2400      	movs	r4, #0
 8004a1a:	9418      	str	r4, [sp, #96]	; 0x60
 8004a1c:	e601      	b.n	8004622 <_svfprintf_r+0x282>
 8004a1e:	9d0a      	ldr	r5, [sp, #40]	; 0x28
 8004a20:	f045 0508 	orr.w	r5, r5, #8
 8004a24:	950a      	str	r5, [sp, #40]	; 0x28
 8004a26:	f899 3000 	ldrb.w	r3, [r9]
 8004a2a:	e522      	b.n	8004472 <_svfprintf_r+0xd2>
 8004a2c:	9c0a      	ldr	r4, [sp, #40]	; 0x28
 8004a2e:	9316      	str	r3, [sp, #88]	; 0x58
 8004a30:	f044 0410 	orr.w	r4, r4, #16
 8004a34:	940a      	str	r4, [sp, #40]	; 0x28
 8004a36:	9d0a      	ldr	r5, [sp, #40]	; 0x28
 8004a38:	f015 0320 	ands.w	r3, r5, #32
 8004a3c:	f47f af4c 	bne.w	80048d8 <_svfprintf_r+0x538>
 8004a40:	9c0a      	ldr	r4, [sp, #40]	; 0x28
 8004a42:	f014 0210 	ands.w	r2, r4, #16
 8004a46:	f040 834c 	bne.w	80050e2 <_svfprintf_r+0xd42>
 8004a4a:	9c0a      	ldr	r4, [sp, #40]	; 0x28
 8004a4c:	f014 0340 	ands.w	r3, r4, #64	; 0x40
 8004a50:	f000 8347 	beq.w	80050e2 <_svfprintf_r+0xd42>
 8004a54:	9814      	ldr	r0, [sp, #80]	; 0x50
 8004a56:	4613      	mov	r3, r2
 8004a58:	2500      	movs	r5, #0
 8004a5a:	3004      	adds	r0, #4
 8004a5c:	f830 4c04 	ldrh.w	r4, [r0, #-4]
 8004a60:	9014      	str	r0, [sp, #80]	; 0x50
 8004a62:	e59e      	b.n	80045a2 <_svfprintf_r+0x202>
 8004a64:	9d0a      	ldr	r5, [sp, #40]	; 0x28
 8004a66:	f045 0520 	orr.w	r5, r5, #32
 8004a6a:	950a      	str	r5, [sp, #40]	; 0x28
 8004a6c:	f899 3000 	ldrb.w	r3, [r9]
 8004a70:	e4ff      	b.n	8004472 <_svfprintf_r+0xd2>
 8004a72:	9c14      	ldr	r4, [sp, #80]	; 0x50
 8004a74:	2500      	movs	r5, #0
 8004a76:	9316      	str	r3, [sp, #88]	; 0x58
 8004a78:	3404      	adds	r4, #4
 8004a7a:	f88d 508f 	strb.w	r5, [sp, #143]	; 0x8f
 8004a7e:	f854 8c04 	ldr.w	r8, [r4, #-4]
 8004a82:	f1b8 0f00 	cmp.w	r8, #0
 8004a86:	f000 85d9 	beq.w	800563c <_svfprintf_r+0x129c>
 8004a8a:	980c      	ldr	r0, [sp, #48]	; 0x30
 8004a8c:	2800      	cmp	r0, #0
 8004a8e:	4640      	mov	r0, r8
 8004a90:	f2c0 85ab 	blt.w	80055ea <_svfprintf_r+0x124a>
 8004a94:	4629      	mov	r1, r5
 8004a96:	9a0c      	ldr	r2, [sp, #48]	; 0x30
 8004a98:	f002 fa60 	bl	8006f5c <memchr>
 8004a9c:	2800      	cmp	r0, #0
 8004a9e:	f000 85ff 	beq.w	80056a0 <_svfprintf_r+0x1300>
 8004aa2:	9414      	str	r4, [sp, #80]	; 0x50
 8004aa4:	ebc8 0000 	rsb	r0, r8, r0
 8004aa8:	9c0c      	ldr	r4, [sp, #48]	; 0x30
 8004aaa:	950c      	str	r5, [sp, #48]	; 0x30
 8004aac:	42a0      	cmp	r0, r4
 8004aae:	bfb8      	it	lt
 8004ab0:	4604      	movlt	r4, r0
 8004ab2:	9410      	str	r4, [sp, #64]	; 0x40
 8004ab4:	ea24 75e4 	bic.w	r5, r4, r4, asr #31
 8004ab8:	9c0c      	ldr	r4, [sp, #48]	; 0x30
 8004aba:	950d      	str	r5, [sp, #52]	; 0x34
 8004abc:	f89d a08f 	ldrb.w	sl, [sp, #143]	; 0x8f
 8004ac0:	9418      	str	r4, [sp, #96]	; 0x60
 8004ac2:	e5ae      	b.n	8004622 <_svfprintf_r+0x282>
 8004ac4:	9d0a      	ldr	r5, [sp, #40]	; 0x28
 8004ac6:	f64a 1424 	movw	r4, #43300	; 0xa924
 8004aca:	f6c0 0400 	movt	r4, #2048	; 0x800
 8004ace:	9316      	str	r3, [sp, #88]	; 0x58
 8004ad0:	06a8      	lsls	r0, r5, #26
 8004ad2:	f88d 208f 	strb.w	r2, [sp, #143]	; 0x8f
 8004ad6:	9419      	str	r4, [sp, #100]	; 0x64
 8004ad8:	f140 809c 	bpl.w	8004c14 <_svfprintf_r+0x874>
 8004adc:	9c14      	ldr	r4, [sp, #80]	; 0x50
 8004ade:	1de3      	adds	r3, r4, #7
 8004ae0:	f023 0307 	bic.w	r3, r3, #7
 8004ae4:	f103 0508 	add.w	r5, r3, #8
 8004ae8:	9514      	str	r5, [sp, #80]	; 0x50
 8004aea:	e9d3 4500 	ldrd	r4, r5, [r3]
 8004aee:	980a      	ldr	r0, [sp, #40]	; 0x28
 8004af0:	07c3      	lsls	r3, r0, #31
 8004af2:	f140 8227 	bpl.w	8004f44 <_svfprintf_r+0xba4>
 8004af6:	ea54 0105 	orrs.w	r1, r4, r5
 8004afa:	f000 8223 	beq.w	8004f44 <_svfprintf_r+0xba4>
 8004afe:	9a16      	ldr	r2, [sp, #88]	; 0x58
 8004b00:	2330      	movs	r3, #48	; 0x30
 8004b02:	f040 0002 	orr.w	r0, r0, #2
 8004b06:	f88d 3090 	strb.w	r3, [sp, #144]	; 0x90
 8004b0a:	900a      	str	r0, [sp, #40]	; 0x28
 8004b0c:	2302      	movs	r3, #2
 8004b0e:	f88d 2091 	strb.w	r2, [sp, #145]	; 0x91
 8004b12:	e546      	b.n	80045a2 <_svfprintf_r+0x202>
 8004b14:	f899 3000 	ldrb.w	r3, [r9]
 8004b18:	222b      	movs	r2, #43	; 0x2b
 8004b1a:	e4aa      	b.n	8004472 <_svfprintf_r+0xd2>
 8004b1c:	f899 3000 	ldrb.w	r3, [r9]
 8004b20:	4649      	mov	r1, r9
 8004b22:	2b6c      	cmp	r3, #108	; 0x6c
 8004b24:	bf05      	ittet	eq
 8004b26:	f109 0901 	addeq.w	r9, r9, #1
 8004b2a:	9d0a      	ldreq	r5, [sp, #40]	; 0x28
 8004b2c:	9c0a      	ldrne	r4, [sp, #40]	; 0x28
 8004b2e:	f045 0520 	orreq.w	r5, r5, #32
 8004b32:	bf0b      	itete	eq
 8004b34:	784b      	ldrbeq	r3, [r1, #1]
 8004b36:	f044 0410 	orrne.w	r4, r4, #16
 8004b3a:	950a      	streq	r5, [sp, #40]	; 0x28
 8004b3c:	940a      	strne	r4, [sp, #40]	; 0x28
 8004b3e:	e498      	b.n	8004472 <_svfprintf_r+0xd2>
 8004b40:	9d0a      	ldr	r5, [sp, #40]	; 0x28
 8004b42:	f88d 208f 	strb.w	r2, [sp, #143]	; 0x8f
 8004b46:	06a9      	lsls	r1, r5, #26
 8004b48:	f140 83eb 	bpl.w	8005322 <_svfprintf_r+0xf82>
 8004b4c:	9c14      	ldr	r4, [sp, #80]	; 0x50
 8004b4e:	6821      	ldr	r1, [r4, #0]
 8004b50:	9c12      	ldr	r4, [sp, #72]	; 0x48
 8004b52:	4622      	mov	r2, r4
 8004b54:	17e5      	asrs	r5, r4, #31
 8004b56:	462b      	mov	r3, r5
 8004b58:	9d14      	ldr	r5, [sp, #80]	; 0x50
 8004b5a:	e9c1 2300 	strd	r2, r3, [r1]
 8004b5e:	3504      	adds	r5, #4
 8004b60:	9514      	str	r5, [sp, #80]	; 0x50
 8004b62:	e453      	b.n	800440c <_svfprintf_r+0x6c>
 8004b64:	9a14      	ldr	r2, [sp, #80]	; 0x50
 8004b66:	f64a 1024 	movw	r0, #43300	; 0xa924
 8004b6a:	9d0a      	ldr	r5, [sp, #40]	; 0x28
 8004b6c:	2378      	movs	r3, #120	; 0x78
 8004b6e:	f6c0 0000 	movt	r0, #2048	; 0x800
 8004b72:	f88d 3091 	strb.w	r3, [sp, #145]	; 0x91
 8004b76:	f045 0502 	orr.w	r5, r5, #2
 8004b7a:	9316      	str	r3, [sp, #88]	; 0x58
 8004b7c:	950a      	str	r5, [sp, #40]	; 0x28
 8004b7e:	2330      	movs	r3, #48	; 0x30
 8004b80:	1d15      	adds	r5, r2, #4
 8004b82:	f88d 3090 	strb.w	r3, [sp, #144]	; 0x90
 8004b86:	9514      	str	r5, [sp, #80]	; 0x50
 8004b88:	2302      	movs	r3, #2
 8004b8a:	6814      	ldr	r4, [r2, #0]
 8004b8c:	2500      	movs	r5, #0
 8004b8e:	9019      	str	r0, [sp, #100]	; 0x64
 8004b90:	e507      	b.n	80045a2 <_svfprintf_r+0x202>
 8004b92:	9c0a      	ldr	r4, [sp, #40]	; 0x28
 8004b94:	f044 0440 	orr.w	r4, r4, #64	; 0x40
 8004b98:	940a      	str	r4, [sp, #40]	; 0x28
 8004b9a:	f899 3000 	ldrb.w	r3, [r9]
 8004b9e:	e468      	b.n	8004472 <_svfprintf_r+0xd2>
 8004ba0:	f899 3000 	ldrb.w	r3, [r9]
 8004ba4:	2a00      	cmp	r2, #0
 8004ba6:	f47f ac64 	bne.w	8004472 <_svfprintf_r+0xd2>
 8004baa:	2220      	movs	r2, #32
 8004bac:	e461      	b.n	8004472 <_svfprintf_r+0xd2>
 8004bae:	9d0a      	ldr	r5, [sp, #40]	; 0x28
 8004bb0:	f045 0501 	orr.w	r5, r5, #1
 8004bb4:	950a      	str	r5, [sp, #40]	; 0x28
 8004bb6:	f899 3000 	ldrb.w	r3, [r9]
 8004bba:	e45a      	b.n	8004472 <_svfprintf_r+0xd2>
 8004bbc:	9c14      	ldr	r4, [sp, #80]	; 0x50
 8004bbe:	9d14      	ldr	r5, [sp, #80]	; 0x50
 8004bc0:	6824      	ldr	r4, [r4, #0]
 8004bc2:	1d2b      	adds	r3, r5, #4
 8004bc4:	2c00      	cmp	r4, #0
 8004bc6:	9413      	str	r4, [sp, #76]	; 0x4c
 8004bc8:	f6ff acb5 	blt.w	8004536 <_svfprintf_r+0x196>
 8004bcc:	9314      	str	r3, [sp, #80]	; 0x50
 8004bce:	f899 3000 	ldrb.w	r3, [r9]
 8004bd2:	e44e      	b.n	8004472 <_svfprintf_r+0xd2>
 8004bd4:	9a14      	ldr	r2, [sp, #80]	; 0x50
 8004bd6:	2401      	movs	r4, #1
 8004bd8:	9d14      	ldr	r5, [sp, #80]	; 0x50
 8004bda:	f10d 08b8 	add.w	r8, sp, #184	; 0xb8
 8004bde:	9316      	str	r3, [sp, #88]	; 0x58
 8004be0:	2300      	movs	r3, #0
 8004be2:	6812      	ldr	r2, [r2, #0]
 8004be4:	3504      	adds	r5, #4
 8004be6:	469a      	mov	sl, r3
 8004be8:	940d      	str	r4, [sp, #52]	; 0x34
 8004bea:	9514      	str	r5, [sp, #80]	; 0x50
 8004bec:	f88d 308f 	strb.w	r3, [sp, #143]	; 0x8f
 8004bf0:	930c      	str	r3, [sp, #48]	; 0x30
 8004bf2:	9318      	str	r3, [sp, #96]	; 0x60
 8004bf4:	9410      	str	r4, [sp, #64]	; 0x40
 8004bf6:	f88d 20b8 	strb.w	r2, [sp, #184]	; 0xb8
 8004bfa:	e518      	b.n	800462e <_svfprintf_r+0x28e>
 8004bfc:	9d0a      	ldr	r5, [sp, #40]	; 0x28
 8004bfe:	f64a 1410 	movw	r4, #43280	; 0xa910
 8004c02:	f6c0 0400 	movt	r4, #2048	; 0x800
 8004c06:	9316      	str	r3, [sp, #88]	; 0x58
 8004c08:	06a8      	lsls	r0, r5, #26
 8004c0a:	f88d 208f 	strb.w	r2, [sp, #143]	; 0x8f
 8004c0e:	9419      	str	r4, [sp, #100]	; 0x64
 8004c10:	f53f af64 	bmi.w	8004adc <_svfprintf_r+0x73c>
 8004c14:	9c0a      	ldr	r4, [sp, #40]	; 0x28
 8004c16:	06e1      	lsls	r1, r4, #27
 8004c18:	f100 8253 	bmi.w	80050c2 <_svfprintf_r+0xd22>
 8004c1c:	9c0a      	ldr	r4, [sp, #40]	; 0x28
 8004c1e:	0662      	lsls	r2, r4, #25
 8004c20:	f140 824f 	bpl.w	80050c2 <_svfprintf_r+0xd22>
 8004c24:	9814      	ldr	r0, [sp, #80]	; 0x50
 8004c26:	2500      	movs	r5, #0
 8004c28:	3004      	adds	r0, #4
 8004c2a:	f830 4c04 	ldrh.w	r4, [r0, #-4]
 8004c2e:	9014      	str	r0, [sp, #80]	; 0x50
 8004c30:	e75d      	b.n	8004aee <_svfprintf_r+0x74e>
 8004c32:	9d0a      	ldr	r5, [sp, #40]	; 0x28
 8004c34:	9316      	str	r3, [sp, #88]	; 0x58
 8004c36:	06a9      	lsls	r1, r5, #26
 8004c38:	f88d 208f 	strb.w	r2, [sp, #143]	; 0x8f
 8004c3c:	f53f ae9b 	bmi.w	8004976 <_svfprintf_r+0x5d6>
 8004c40:	9c0a      	ldr	r4, [sp, #40]	; 0x28
 8004c42:	06e2      	lsls	r2, r4, #27
 8004c44:	f100 8255 	bmi.w	80050f2 <_svfprintf_r+0xd52>
 8004c48:	9c0a      	ldr	r4, [sp, #40]	; 0x28
 8004c4a:	0663      	lsls	r3, r4, #25
 8004c4c:	f140 8251 	bpl.w	80050f2 <_svfprintf_r+0xd52>
 8004c50:	9814      	ldr	r0, [sp, #80]	; 0x50
 8004c52:	3004      	adds	r0, #4
 8004c54:	f930 4c04 	ldrsh.w	r4, [r0, #-4]
 8004c58:	9014      	str	r0, [sp, #80]	; 0x50
 8004c5a:	4622      	mov	r2, r4
 8004c5c:	17e5      	asrs	r5, r4, #31
 8004c5e:	462b      	mov	r3, r5
 8004c60:	e694      	b.n	800498c <_svfprintf_r+0x5ec>
 8004c62:	9d0a      	ldr	r5, [sp, #40]	; 0x28
 8004c64:	f045 0580 	orr.w	r5, r5, #128	; 0x80
 8004c68:	950a      	str	r5, [sp, #40]	; 0x28
 8004c6a:	f899 3000 	ldrb.w	r3, [r9]
 8004c6e:	e400      	b.n	8004472 <_svfprintf_r+0xd2>
 8004c70:	2400      	movs	r4, #0
 8004c72:	f1a3 0130 	sub.w	r1, r3, #48	; 0x30
 8004c76:	4620      	mov	r0, r4
 8004c78:	9413      	str	r4, [sp, #76]	; 0x4c
 8004c7a:	eb00 0080 	add.w	r0, r0, r0, lsl #2
 8004c7e:	f819 3b01 	ldrb.w	r3, [r9], #1
 8004c82:	eb01 0040 	add.w	r0, r1, r0, lsl #1
 8004c86:	f1a3 0130 	sub.w	r1, r3, #48	; 0x30
 8004c8a:	2909      	cmp	r1, #9
 8004c8c:	d9f5      	bls.n	8004c7a <_svfprintf_r+0x8da>
 8004c8e:	9013      	str	r0, [sp, #76]	; 0x4c
 8004c90:	f7ff bbf1 	b.w	8004476 <_svfprintf_r+0xd6>
 8004c94:	9316      	str	r3, [sp, #88]	; 0x58
 8004c96:	f88d 208f 	strb.w	r2, [sp, #143]	; 0x8f
 8004c9a:	2b00      	cmp	r3, #0
 8004c9c:	f43f ac5e 	beq.w	800455c <_svfprintf_r+0x1bc>
 8004ca0:	9c16      	ldr	r4, [sp, #88]	; 0x58
 8004ca2:	2300      	movs	r3, #0
 8004ca4:	2501      	movs	r5, #1
 8004ca6:	469a      	mov	sl, r3
 8004ca8:	950d      	str	r5, [sp, #52]	; 0x34
 8004caa:	f10d 08b8 	add.w	r8, sp, #184	; 0xb8
 8004cae:	f88d 40b8 	strb.w	r4, [sp, #184]	; 0xb8
 8004cb2:	f88d 308f 	strb.w	r3, [sp, #143]	; 0x8f
 8004cb6:	930c      	str	r3, [sp, #48]	; 0x30
 8004cb8:	9318      	str	r3, [sp, #96]	; 0x60
 8004cba:	9510      	str	r5, [sp, #64]	; 0x40
 8004cbc:	e4b7      	b.n	800462e <_svfprintf_r+0x28e>
 8004cbe:	980e      	ldr	r0, [sp, #56]	; 0x38
 8004cc0:	aa2b      	add	r2, sp, #172	; 0xac
 8004cc2:	990b      	ldr	r1, [sp, #44]	; 0x2c
 8004cc4:	f003 f810 	bl	8007ce8 <__ssprint_r>
 8004cc8:	2800      	cmp	r0, #0
 8004cca:	f47f ac4e 	bne.w	800456a <_svfprintf_r+0x1ca>
 8004cce:	f89d a08f 	ldrb.w	sl, [sp, #143]	; 0x8f
 8004cd2:	af38      	add	r7, sp, #224	; 0xe0
 8004cd4:	9c2d      	ldr	r4, [sp, #180]	; 0xb4
 8004cd6:	e509      	b.n	80046ec <_svfprintf_r+0x34c>
 8004cd8:	9d16      	ldr	r5, [sp, #88]	; 0x58
 8004cda:	2d65      	cmp	r5, #101	; 0x65
 8004cdc:	f340 80b9 	ble.w	8004e52 <_svfprintf_r+0xab2>
 8004ce0:	981b      	ldr	r0, [sp, #108]	; 0x6c
 8004ce2:	2200      	movs	r2, #0
 8004ce4:	2300      	movs	r3, #0
 8004ce6:	991c      	ldr	r1, [sp, #112]	; 0x70
 8004ce8:	f004 ffc4 	bl	8009c74 <__aeabi_dcmpeq>
 8004cec:	2800      	cmp	r0, #0
 8004cee:	f000 812c 	beq.w	8004f4a <_svfprintf_r+0xbaa>
 8004cf2:	9b2c      	ldr	r3, [sp, #176]	; 0xb0
 8004cf4:	2201      	movs	r2, #1
 8004cf6:	9d17      	ldr	r5, [sp, #92]	; 0x5c
 8004cf8:	3401      	adds	r4, #1
 8004cfa:	4413      	add	r3, r2
 8004cfc:	607a      	str	r2, [r7, #4]
 8004cfe:	2b07      	cmp	r3, #7
 8004d00:	942d      	str	r4, [sp, #180]	; 0xb4
 8004d02:	603d      	str	r5, [r7, #0]
 8004d04:	bfd8      	it	le
 8004d06:	3708      	addle	r7, #8
 8004d08:	932c      	str	r3, [sp, #176]	; 0xb0
 8004d0a:	f300 8316 	bgt.w	800533a <_svfprintf_r+0xf9a>
 8004d0e:	9b25      	ldr	r3, [sp, #148]	; 0x94
 8004d10:	9d11      	ldr	r5, [sp, #68]	; 0x44
 8004d12:	42ab      	cmp	r3, r5
 8004d14:	db03      	blt.n	8004d1e <_svfprintf_r+0x97e>
 8004d16:	9d0a      	ldr	r5, [sp, #40]	; 0x28
 8004d18:	07ed      	lsls	r5, r5, #31
 8004d1a:	f57f ad68 	bpl.w	80047ee <_svfprintf_r+0x44e>
 8004d1e:	9d1d      	ldr	r5, [sp, #116]	; 0x74
 8004d20:	9b2c      	ldr	r3, [sp, #176]	; 0xb0
 8004d22:	442c      	add	r4, r5
 8004d24:	9d1a      	ldr	r5, [sp, #104]	; 0x68
 8004d26:	3301      	adds	r3, #1
 8004d28:	942d      	str	r4, [sp, #180]	; 0xb4
 8004d2a:	2b07      	cmp	r3, #7
 8004d2c:	932c      	str	r3, [sp, #176]	; 0xb0
 8004d2e:	603d      	str	r5, [r7, #0]
 8004d30:	9d1d      	ldr	r5, [sp, #116]	; 0x74
 8004d32:	607d      	str	r5, [r7, #4]
 8004d34:	bfd8      	it	le
 8004d36:	3708      	addle	r7, #8
 8004d38:	f300 835e 	bgt.w	80053f8 <_svfprintf_r+0x1058>
 8004d3c:	9d11      	ldr	r5, [sp, #68]	; 0x44
 8004d3e:	f105 38ff 	add.w	r8, r5, #4294967295
 8004d42:	f1b8 0f00 	cmp.w	r8, #0
 8004d46:	f77f ad52 	ble.w	80047ee <_svfprintf_r+0x44e>
 8004d4a:	f1b8 0f10 	cmp.w	r8, #16
 8004d4e:	9b2c      	ldr	r3, [sp, #176]	; 0xb0
 8004d50:	f340 81aa 	ble.w	80050a8 <_svfprintf_r+0xd08>
 8004d54:	4dac      	ldr	r5, [pc, #688]	; (8005008 <_svfprintf_r+0xc68>)
 8004d56:	f04f 0a10 	mov.w	sl, #16
 8004d5a:	f8dd b02c 	ldr.w	fp, [sp, #44]	; 0x2c
 8004d5e:	950f      	str	r5, [sp, #60]	; 0x3c
 8004d60:	9d0e      	ldr	r5, [sp, #56]	; 0x38
 8004d62:	e005      	b.n	8004d70 <_svfprintf_r+0x9d0>
 8004d64:	f1a8 0810 	sub.w	r8, r8, #16
 8004d68:	f1b8 0f10 	cmp.w	r8, #16
 8004d6c:	f340 819e 	ble.w	80050ac <_svfprintf_r+0xd0c>
 8004d70:	3301      	adds	r3, #1
 8004d72:	3410      	adds	r4, #16
 8004d74:	2b07      	cmp	r3, #7
 8004d76:	e887 0440 	stmia.w	r7, {r6, sl}
 8004d7a:	932c      	str	r3, [sp, #176]	; 0xb0
 8004d7c:	f107 0708 	add.w	r7, r7, #8
 8004d80:	942d      	str	r4, [sp, #180]	; 0xb4
 8004d82:	ddef      	ble.n	8004d64 <_svfprintf_r+0x9c4>
 8004d84:	4628      	mov	r0, r5
 8004d86:	4659      	mov	r1, fp
 8004d88:	aa2b      	add	r2, sp, #172	; 0xac
 8004d8a:	af38      	add	r7, sp, #224	; 0xe0
 8004d8c:	f002 ffac 	bl	8007ce8 <__ssprint_r>
 8004d90:	2800      	cmp	r0, #0
 8004d92:	f47f abea 	bne.w	800456a <_svfprintf_r+0x1ca>
 8004d96:	9c2d      	ldr	r4, [sp, #180]	; 0xb4
 8004d98:	9b2c      	ldr	r3, [sp, #176]	; 0xb0
 8004d9a:	e7e3      	b.n	8004d64 <_svfprintf_r+0x9c4>
 8004d9c:	2b00      	cmp	r3, #0
 8004d9e:	f040 80b4 	bne.w	8004f0a <_svfprintf_r+0xb6a>
 8004da2:	9c0a      	ldr	r4, [sp, #40]	; 0x28
 8004da4:	07e2      	lsls	r2, r4, #31
 8004da6:	bf5c      	itt	pl
 8004da8:	9310      	strpl	r3, [sp, #64]	; 0x40
 8004daa:	f10d 08e0 	addpl.w	r8, sp, #224	; 0xe0
 8004dae:	f57f ac30 	bpl.w	8004612 <_svfprintf_r+0x272>
 8004db2:	9d21      	ldr	r5, [sp, #132]	; 0x84
 8004db4:	2330      	movs	r3, #48	; 0x30
 8004db6:	f10d 08df 	add.w	r8, sp, #223	; 0xdf
 8004dba:	f88d 30df 	strb.w	r3, [sp, #223]	; 0xdf
 8004dbe:	9510      	str	r5, [sp, #64]	; 0x40
 8004dc0:	e427      	b.n	8004612 <_svfprintf_r+0x272>
 8004dc2:	9813      	ldr	r0, [sp, #76]	; 0x4c
 8004dc4:	990d      	ldr	r1, [sp, #52]	; 0x34
 8004dc6:	1a45      	subs	r5, r0, r1
 8004dc8:	2d00      	cmp	r5, #0
 8004dca:	f77f acb4 	ble.w	8004736 <_svfprintf_r+0x396>
 8004dce:	2d10      	cmp	r5, #16
 8004dd0:	9b2c      	ldr	r3, [sp, #176]	; 0xb0
 8004dd2:	bfdc      	itt	le
 8004dd4:	4a8c      	ldrle	r2, [pc, #560]	; (8005008 <_svfprintf_r+0xc68>)
 8004dd6:	920f      	strle	r2, [sp, #60]	; 0x3c
 8004dd8:	dd24      	ble.n	8004e24 <_svfprintf_r+0xa84>
 8004dda:	488b      	ldr	r0, [pc, #556]	; (8005008 <_svfprintf_r+0xc68>)
 8004ddc:	4622      	mov	r2, r4
 8004dde:	f04f 0b10 	mov.w	fp, #16
 8004de2:	f8dd a038 	ldr.w	sl, [sp, #56]	; 0x38
 8004de6:	9c0b      	ldr	r4, [sp, #44]	; 0x2c
 8004de8:	900f      	str	r0, [sp, #60]	; 0x3c
 8004dea:	e002      	b.n	8004df2 <_svfprintf_r+0xa52>
 8004dec:	3d10      	subs	r5, #16
 8004dee:	2d10      	cmp	r5, #16
 8004df0:	dd17      	ble.n	8004e22 <_svfprintf_r+0xa82>
 8004df2:	3301      	adds	r3, #1
 8004df4:	3210      	adds	r2, #16
 8004df6:	2b07      	cmp	r3, #7
 8004df8:	e887 0840 	stmia.w	r7, {r6, fp}
 8004dfc:	932c      	str	r3, [sp, #176]	; 0xb0
 8004dfe:	f107 0708 	add.w	r7, r7, #8
 8004e02:	922d      	str	r2, [sp, #180]	; 0xb4
 8004e04:	ddf2      	ble.n	8004dec <_svfprintf_r+0xa4c>
 8004e06:	4650      	mov	r0, sl
 8004e08:	4621      	mov	r1, r4
 8004e0a:	aa2b      	add	r2, sp, #172	; 0xac
 8004e0c:	af38      	add	r7, sp, #224	; 0xe0
 8004e0e:	f002 ff6b 	bl	8007ce8 <__ssprint_r>
 8004e12:	2800      	cmp	r0, #0
 8004e14:	f47f aba9 	bne.w	800456a <_svfprintf_r+0x1ca>
 8004e18:	3d10      	subs	r5, #16
 8004e1a:	9a2d      	ldr	r2, [sp, #180]	; 0xb4
 8004e1c:	2d10      	cmp	r5, #16
 8004e1e:	9b2c      	ldr	r3, [sp, #176]	; 0xb0
 8004e20:	dce7      	bgt.n	8004df2 <_svfprintf_r+0xa52>
 8004e22:	4614      	mov	r4, r2
 8004e24:	3301      	adds	r3, #1
 8004e26:	990f      	ldr	r1, [sp, #60]	; 0x3c
 8004e28:	2b07      	cmp	r3, #7
 8004e2a:	442c      	add	r4, r5
 8004e2c:	932c      	str	r3, [sp, #176]	; 0xb0
 8004e2e:	e887 0022 	stmia.w	r7, {r1, r5}
 8004e32:	bfd8      	it	le
 8004e34:	3708      	addle	r7, #8
 8004e36:	942d      	str	r4, [sp, #180]	; 0xb4
 8004e38:	f77f ac7d 	ble.w	8004736 <_svfprintf_r+0x396>
 8004e3c:	980e      	ldr	r0, [sp, #56]	; 0x38
 8004e3e:	aa2b      	add	r2, sp, #172	; 0xac
 8004e40:	990b      	ldr	r1, [sp, #44]	; 0x2c
 8004e42:	f002 ff51 	bl	8007ce8 <__ssprint_r>
 8004e46:	2800      	cmp	r0, #0
 8004e48:	f47f ab8f 	bne.w	800456a <_svfprintf_r+0x1ca>
 8004e4c:	9c2d      	ldr	r4, [sp, #180]	; 0xb4
 8004e4e:	af38      	add	r7, sp, #224	; 0xe0
 8004e50:	e471      	b.n	8004736 <_svfprintf_r+0x396>
 8004e52:	9d11      	ldr	r5, [sp, #68]	; 0x44
 8004e54:	9b2c      	ldr	r3, [sp, #176]	; 0xb0
 8004e56:	2d01      	cmp	r5, #1
 8004e58:	f340 81e2 	ble.w	8005220 <_svfprintf_r+0xe80>
 8004e5c:	2101      	movs	r1, #1
 8004e5e:	1c62      	adds	r2, r4, #1
 8004e60:	440b      	add	r3, r1
 8004e62:	f8c7 8000 	str.w	r8, [r7]
 8004e66:	2b07      	cmp	r3, #7
 8004e68:	6079      	str	r1, [r7, #4]
 8004e6a:	922d      	str	r2, [sp, #180]	; 0xb4
 8004e6c:	bfd8      	it	le
 8004e6e:	3708      	addle	r7, #8
 8004e70:	932c      	str	r3, [sp, #176]	; 0xb0
 8004e72:	f300 81f4 	bgt.w	800525e <_svfprintf_r+0xebe>
 8004e76:	9d1a      	ldr	r5, [sp, #104]	; 0x68
 8004e78:	1c5c      	adds	r4, r3, #1
 8004e7a:	f8dd a074 	ldr.w	sl, [sp, #116]	; 0x74
 8004e7e:	2c07      	cmp	r4, #7
 8004e80:	942c      	str	r4, [sp, #176]	; 0xb0
 8004e82:	603d      	str	r5, [r7, #0]
 8004e84:	4492      	add	sl, r2
 8004e86:	9d1d      	ldr	r5, [sp, #116]	; 0x74
 8004e88:	f8cd a0b4 	str.w	sl, [sp, #180]	; 0xb4
 8004e8c:	607d      	str	r5, [r7, #4]
 8004e8e:	bfd8      	it	le
 8004e90:	3708      	addle	r7, #8
 8004e92:	f300 81d7 	bgt.w	8005244 <_svfprintf_r+0xea4>
 8004e96:	981b      	ldr	r0, [sp, #108]	; 0x6c
 8004e98:	2200      	movs	r2, #0
 8004e9a:	2300      	movs	r3, #0
 8004e9c:	991c      	ldr	r1, [sp, #112]	; 0x70
 8004e9e:	f004 fee9 	bl	8009c74 <__aeabi_dcmpeq>
 8004ea2:	2800      	cmp	r0, #0
 8004ea4:	f040 80b2 	bne.w	800500c <_svfprintf_r+0xc6c>
 8004ea8:	3401      	adds	r4, #1
 8004eaa:	9d11      	ldr	r5, [sp, #68]	; 0x44
 8004eac:	2c07      	cmp	r4, #7
 8004eae:	f108 0201 	add.w	r2, r8, #1
 8004eb2:	f105 33ff 	add.w	r3, r5, #4294967295
 8004eb6:	942c      	str	r4, [sp, #176]	; 0xb0
 8004eb8:	449a      	add	sl, r3
 8004eba:	603a      	str	r2, [r7, #0]
 8004ebc:	f8cd a0b4 	str.w	sl, [sp, #180]	; 0xb4
 8004ec0:	607b      	str	r3, [r7, #4]
 8004ec2:	f300 80e4 	bgt.w	800508e <_svfprintf_r+0xcee>
 8004ec6:	3708      	adds	r7, #8
 8004ec8:	1c63      	adds	r3, r4, #1
 8004eca:	9d1e      	ldr	r5, [sp, #120]	; 0x78
 8004ecc:	9c1e      	ldr	r4, [sp, #120]	; 0x78
 8004ece:	2b07      	cmp	r3, #7
 8004ed0:	aa27      	add	r2, sp, #156	; 0x9c
 8004ed2:	932c      	str	r3, [sp, #176]	; 0xb0
 8004ed4:	4454      	add	r4, sl
 8004ed6:	e887 0024 	stmia.w	r7, {r2, r5}
 8004eda:	942d      	str	r4, [sp, #180]	; 0xb4
 8004edc:	f77f ac86 	ble.w	80047ec <_svfprintf_r+0x44c>
 8004ee0:	980e      	ldr	r0, [sp, #56]	; 0x38
 8004ee2:	aa2b      	add	r2, sp, #172	; 0xac
 8004ee4:	990b      	ldr	r1, [sp, #44]	; 0x2c
 8004ee6:	f002 feff 	bl	8007ce8 <__ssprint_r>
 8004eea:	2800      	cmp	r0, #0
 8004eec:	f47f ab3d 	bne.w	800456a <_svfprintf_r+0x1ca>
 8004ef0:	9c2d      	ldr	r4, [sp, #180]	; 0xb4
 8004ef2:	af38      	add	r7, sp, #224	; 0xe0
 8004ef4:	e47b      	b.n	80047ee <_svfprintf_r+0x44e>
 8004ef6:	980e      	ldr	r0, [sp, #56]	; 0x38
 8004ef8:	aa2b      	add	r2, sp, #172	; 0xac
 8004efa:	990b      	ldr	r1, [sp, #44]	; 0x2c
 8004efc:	f002 fef4 	bl	8007ce8 <__ssprint_r>
 8004f00:	2800      	cmp	r0, #0
 8004f02:	f43f acc3 	beq.w	800488c <_svfprintf_r+0x4ec>
 8004f06:	f7ff bb30 	b.w	800456a <_svfprintf_r+0x1ca>
 8004f0a:	9210      	str	r2, [sp, #64]	; 0x40
 8004f0c:	f10d 08e0 	add.w	r8, sp, #224	; 0xe0
 8004f10:	f7ff bb7f 	b.w	8004612 <_svfprintf_r+0x272>
 8004f14:	980e      	ldr	r0, [sp, #56]	; 0x38
 8004f16:	aa2b      	add	r2, sp, #172	; 0xac
 8004f18:	990b      	ldr	r1, [sp, #44]	; 0x2c
 8004f1a:	f002 fee5 	bl	8007ce8 <__ssprint_r>
 8004f1e:	2800      	cmp	r0, #0
 8004f20:	f47f ab23 	bne.w	800456a <_svfprintf_r+0x1ca>
 8004f24:	9c2d      	ldr	r4, [sp, #180]	; 0xb4
 8004f26:	af38      	add	r7, sp, #224	; 0xe0
 8004f28:	f7ff bbf2 	b.w	8004710 <_svfprintf_r+0x370>
 8004f2c:	980e      	ldr	r0, [sp, #56]	; 0x38
 8004f2e:	aa2b      	add	r2, sp, #172	; 0xac
 8004f30:	990b      	ldr	r1, [sp, #44]	; 0x2c
 8004f32:	f002 fed9 	bl	8007ce8 <__ssprint_r>
 8004f36:	2800      	cmp	r0, #0
 8004f38:	f47f ab17 	bne.w	800456a <_svfprintf_r+0x1ca>
 8004f3c:	9c2d      	ldr	r4, [sp, #180]	; 0xb4
 8004f3e:	af38      	add	r7, sp, #224	; 0xe0
 8004f40:	f7ff bbf6 	b.w	8004730 <_svfprintf_r+0x390>
 8004f44:	2302      	movs	r3, #2
 8004f46:	f7ff bb2c 	b.w	80045a2 <_svfprintf_r+0x202>
 8004f4a:	9b25      	ldr	r3, [sp, #148]	; 0x94
 8004f4c:	2b00      	cmp	r3, #0
 8004f4e:	f340 81ff 	ble.w	8005350 <_svfprintf_r+0xfb0>
 8004f52:	9d11      	ldr	r5, [sp, #68]	; 0x44
 8004f54:	9818      	ldr	r0, [sp, #96]	; 0x60
 8004f56:	9911      	ldr	r1, [sp, #68]	; 0x44
 8004f58:	4285      	cmp	r5, r0
 8004f5a:	bfa8      	it	ge
 8004f5c:	4605      	movge	r5, r0
 8004f5e:	2d00      	cmp	r5, #0
 8004f60:	4441      	add	r1, r8
 8004f62:	910c      	str	r1, [sp, #48]	; 0x30
 8004f64:	dd0c      	ble.n	8004f80 <_svfprintf_r+0xbe0>
 8004f66:	9b2c      	ldr	r3, [sp, #176]	; 0xb0
 8004f68:	442c      	add	r4, r5
 8004f6a:	f8c7 8000 	str.w	r8, [r7]
 8004f6e:	3301      	adds	r3, #1
 8004f70:	607d      	str	r5, [r7, #4]
 8004f72:	2b07      	cmp	r3, #7
 8004f74:	942d      	str	r4, [sp, #180]	; 0xb4
 8004f76:	932c      	str	r3, [sp, #176]	; 0xb0
 8004f78:	bfd8      	it	le
 8004f7a:	3708      	addle	r7, #8
 8004f7c:	f300 8343 	bgt.w	8005606 <_svfprintf_r+0x1266>
 8004f80:	9a18      	ldr	r2, [sp, #96]	; 0x60
 8004f82:	ea25 75e5 	bic.w	r5, r5, r5, asr #31
 8004f86:	ebc5 0a02 	rsb	sl, r5, r2
 8004f8a:	f1ba 0f00 	cmp.w	sl, #0
 8004f8e:	f340 80dd 	ble.w	800514c <_svfprintf_r+0xdac>
 8004f92:	f1ba 0f10 	cmp.w	sl, #16
 8004f96:	9b2c      	ldr	r3, [sp, #176]	; 0xb0
 8004f98:	bfdc      	itt	le
 8004f9a:	4d1b      	ldrle	r5, [pc, #108]	; (8005008 <_svfprintf_r+0xc68>)
 8004f9c:	950f      	strle	r5, [sp, #60]	; 0x3c
 8004f9e:	f340 80c0 	ble.w	8005122 <_svfprintf_r+0xd82>
 8004fa2:	4d19      	ldr	r5, [pc, #100]	; (8005008 <_svfprintf_r+0xc68>)
 8004fa4:	4622      	mov	r2, r4
 8004fa6:	f04f 0b10 	mov.w	fp, #16
 8004faa:	9c0b      	ldr	r4, [sp, #44]	; 0x2c
 8004fac:	950f      	str	r5, [sp, #60]	; 0x3c
 8004fae:	9d0e      	ldr	r5, [sp, #56]	; 0x38
 8004fb0:	e005      	b.n	8004fbe <_svfprintf_r+0xc1e>
 8004fb2:	f1aa 0a10 	sub.w	sl, sl, #16
 8004fb6:	f1ba 0f10 	cmp.w	sl, #16
 8004fba:	f340 80b1 	ble.w	8005120 <_svfprintf_r+0xd80>
 8004fbe:	3301      	adds	r3, #1
 8004fc0:	3210      	adds	r2, #16
 8004fc2:	2b07      	cmp	r3, #7
 8004fc4:	e887 0840 	stmia.w	r7, {r6, fp}
 8004fc8:	932c      	str	r3, [sp, #176]	; 0xb0
 8004fca:	f107 0708 	add.w	r7, r7, #8
 8004fce:	922d      	str	r2, [sp, #180]	; 0xb4
 8004fd0:	ddef      	ble.n	8004fb2 <_svfprintf_r+0xc12>
 8004fd2:	4628      	mov	r0, r5
 8004fd4:	4621      	mov	r1, r4
 8004fd6:	aa2b      	add	r2, sp, #172	; 0xac
 8004fd8:	af38      	add	r7, sp, #224	; 0xe0
 8004fda:	f002 fe85 	bl	8007ce8 <__ssprint_r>
 8004fde:	2800      	cmp	r0, #0
 8004fe0:	f47f aac3 	bne.w	800456a <_svfprintf_r+0x1ca>
 8004fe4:	9a2d      	ldr	r2, [sp, #180]	; 0xb4
 8004fe6:	9b2c      	ldr	r3, [sp, #176]	; 0xb0
 8004fe8:	e7e3      	b.n	8004fb2 <_svfprintf_r+0xc12>
 8004fea:	2d00      	cmp	r5, #0
 8004fec:	bf08      	it	eq
 8004fee:	2c0a      	cmpeq	r4, #10
 8004ff0:	f080 8141 	bcs.w	8005276 <_svfprintf_r+0xed6>
 8004ff4:	9d21      	ldr	r5, [sp, #132]	; 0x84
 8004ff6:	3430      	adds	r4, #48	; 0x30
 8004ff8:	f10d 08df 	add.w	r8, sp, #223	; 0xdf
 8004ffc:	f88d 40df 	strb.w	r4, [sp, #223]	; 0xdf
 8005000:	9510      	str	r5, [sp, #64]	; 0x40
 8005002:	f7ff bb06 	b.w	8004612 <_svfprintf_r+0x272>
 8005006:	bf00      	nop
 8005008:	0800a484 	stmdaeq	r0, {r2, r7, sl, sp, pc}
 800500c:	9d11      	ldr	r5, [sp, #68]	; 0x44
 800500e:	f105 38ff 	add.w	r8, r5, #4294967295
 8005012:	f1b8 0f00 	cmp.w	r8, #0
 8005016:	f77f af57 	ble.w	8004ec8 <_svfprintf_r+0xb28>
 800501a:	f1b8 0f10 	cmp.w	r8, #16
 800501e:	bfdc      	itt	le
 8005020:	4ba8      	ldrle	r3, [pc, #672]	; (80052c4 <_svfprintf_r+0xf24>)
 8005022:	930f      	strle	r3, [sp, #60]	; 0x3c
 8005024:	dd28      	ble.n	8005078 <_svfprintf_r+0xcd8>
 8005026:	4da7      	ldr	r5, [pc, #668]	; (80052c4 <_svfprintf_r+0xf24>)
 8005028:	4653      	mov	r3, sl
 800502a:	f04f 0b10 	mov.w	fp, #16
 800502e:	f8dd a02c 	ldr.w	sl, [sp, #44]	; 0x2c
 8005032:	950f      	str	r5, [sp, #60]	; 0x3c
 8005034:	9d0e      	ldr	r5, [sp, #56]	; 0x38
 8005036:	e004      	b.n	8005042 <_svfprintf_r+0xca2>
 8005038:	f1a8 0810 	sub.w	r8, r8, #16
 800503c:	f1b8 0f10 	cmp.w	r8, #16
 8005040:	dd19      	ble.n	8005076 <_svfprintf_r+0xcd6>
 8005042:	3401      	adds	r4, #1
 8005044:	3310      	adds	r3, #16
 8005046:	2c07      	cmp	r4, #7
 8005048:	e887 0840 	stmia.w	r7, {r6, fp}
 800504c:	942c      	str	r4, [sp, #176]	; 0xb0
 800504e:	f107 0708 	add.w	r7, r7, #8
 8005052:	932d      	str	r3, [sp, #180]	; 0xb4
 8005054:	ddf0      	ble.n	8005038 <_svfprintf_r+0xc98>
 8005056:	4628      	mov	r0, r5
 8005058:	4651      	mov	r1, sl
 800505a:	aa2b      	add	r2, sp, #172	; 0xac
 800505c:	af38      	add	r7, sp, #224	; 0xe0
 800505e:	f002 fe43 	bl	8007ce8 <__ssprint_r>
 8005062:	2800      	cmp	r0, #0
 8005064:	f47f aa81 	bne.w	800456a <_svfprintf_r+0x1ca>
 8005068:	f1a8 0810 	sub.w	r8, r8, #16
 800506c:	9b2d      	ldr	r3, [sp, #180]	; 0xb4
 800506e:	f1b8 0f10 	cmp.w	r8, #16
 8005072:	9c2c      	ldr	r4, [sp, #176]	; 0xb0
 8005074:	dce5      	bgt.n	8005042 <_svfprintf_r+0xca2>
 8005076:	469a      	mov	sl, r3
 8005078:	3401      	adds	r4, #1
 800507a:	9b0f      	ldr	r3, [sp, #60]	; 0x3c
 800507c:	2c07      	cmp	r4, #7
 800507e:	44c2      	add	sl, r8
 8005080:	942c      	str	r4, [sp, #176]	; 0xb0
 8005082:	f8cd a0b4 	str.w	sl, [sp, #180]	; 0xb4
 8005086:	e887 0108 	stmia.w	r7, {r3, r8}
 800508a:	f77f af1c 	ble.w	8004ec6 <_svfprintf_r+0xb26>
 800508e:	980e      	ldr	r0, [sp, #56]	; 0x38
 8005090:	aa2b      	add	r2, sp, #172	; 0xac
 8005092:	990b      	ldr	r1, [sp, #44]	; 0x2c
 8005094:	f002 fe28 	bl	8007ce8 <__ssprint_r>
 8005098:	2800      	cmp	r0, #0
 800509a:	f47f aa66 	bne.w	800456a <_svfprintf_r+0x1ca>
 800509e:	f8dd a0b4 	ldr.w	sl, [sp, #180]	; 0xb4
 80050a2:	af38      	add	r7, sp, #224	; 0xe0
 80050a4:	9c2c      	ldr	r4, [sp, #176]	; 0xb0
 80050a6:	e70f      	b.n	8004ec8 <_svfprintf_r+0xb28>
 80050a8:	4d86      	ldr	r5, [pc, #536]	; (80052c4 <_svfprintf_r+0xf24>)
 80050aa:	950f      	str	r5, [sp, #60]	; 0x3c
 80050ac:	3301      	adds	r3, #1
 80050ae:	9d0f      	ldr	r5, [sp, #60]	; 0x3c
 80050b0:	2b07      	cmp	r3, #7
 80050b2:	4444      	add	r4, r8
 80050b4:	932c      	str	r3, [sp, #176]	; 0xb0
 80050b6:	942d      	str	r4, [sp, #180]	; 0xb4
 80050b8:	e887 0120 	stmia.w	r7, {r5, r8}
 80050bc:	f77f ab96 	ble.w	80047ec <_svfprintf_r+0x44c>
 80050c0:	e70e      	b.n	8004ee0 <_svfprintf_r+0xb40>
 80050c2:	9d14      	ldr	r5, [sp, #80]	; 0x50
 80050c4:	3504      	adds	r5, #4
 80050c6:	f855 4c04 	ldr.w	r4, [r5, #-4]
 80050ca:	9514      	str	r5, [sp, #80]	; 0x50
 80050cc:	2500      	movs	r5, #0
 80050ce:	e50e      	b.n	8004aee <_svfprintf_r+0x74e>
 80050d0:	9d14      	ldr	r5, [sp, #80]	; 0x50
 80050d2:	2301      	movs	r3, #1
 80050d4:	3504      	adds	r5, #4
 80050d6:	f855 4c04 	ldr.w	r4, [r5, #-4]
 80050da:	9514      	str	r5, [sp, #80]	; 0x50
 80050dc:	2500      	movs	r5, #0
 80050de:	f7ff ba60 	b.w	80045a2 <_svfprintf_r+0x202>
 80050e2:	9d14      	ldr	r5, [sp, #80]	; 0x50
 80050e4:	3504      	adds	r5, #4
 80050e6:	f855 4c04 	ldr.w	r4, [r5, #-4]
 80050ea:	9514      	str	r5, [sp, #80]	; 0x50
 80050ec:	2500      	movs	r5, #0
 80050ee:	f7ff ba58 	b.w	80045a2 <_svfprintf_r+0x202>
 80050f2:	9d14      	ldr	r5, [sp, #80]	; 0x50
 80050f4:	3504      	adds	r5, #4
 80050f6:	f855 4c04 	ldr.w	r4, [r5, #-4]
 80050fa:	9514      	str	r5, [sp, #80]	; 0x50
 80050fc:	4622      	mov	r2, r4
 80050fe:	17e5      	asrs	r5, r4, #31
 8005100:	462b      	mov	r3, r5
 8005102:	2a00      	cmp	r2, #0
 8005104:	f173 0000 	sbcs.w	r0, r3, #0
 8005108:	f6bf ac45 	bge.w	8004996 <_svfprintf_r+0x5f6>
 800510c:	f04f 0a2d 	mov.w	sl, #45	; 0x2d
 8005110:	4264      	negs	r4, r4
 8005112:	eb65 0545 	sbc.w	r5, r5, r5, lsl #1
 8005116:	f88d a08f 	strb.w	sl, [sp, #143]	; 0x8f
 800511a:	2301      	movs	r3, #1
 800511c:	f7ff ba45 	b.w	80045aa <_svfprintf_r+0x20a>
 8005120:	4614      	mov	r4, r2
 8005122:	3301      	adds	r3, #1
 8005124:	9d0f      	ldr	r5, [sp, #60]	; 0x3c
 8005126:	2b07      	cmp	r3, #7
 8005128:	4454      	add	r4, sl
 800512a:	932c      	str	r3, [sp, #176]	; 0xb0
 800512c:	e887 0420 	stmia.w	r7, {r5, sl}
 8005130:	bfd8      	it	le
 8005132:	3708      	addle	r7, #8
 8005134:	942d      	str	r4, [sp, #180]	; 0xb4
 8005136:	dd09      	ble.n	800514c <_svfprintf_r+0xdac>
 8005138:	980e      	ldr	r0, [sp, #56]	; 0x38
 800513a:	aa2b      	add	r2, sp, #172	; 0xac
 800513c:	990b      	ldr	r1, [sp, #44]	; 0x2c
 800513e:	f002 fdd3 	bl	8007ce8 <__ssprint_r>
 8005142:	2800      	cmp	r0, #0
 8005144:	f47f aa11 	bne.w	800456a <_svfprintf_r+0x1ca>
 8005148:	9c2d      	ldr	r4, [sp, #180]	; 0xb4
 800514a:	af38      	add	r7, sp, #224	; 0xe0
 800514c:	9d18      	ldr	r5, [sp, #96]	; 0x60
 800514e:	9b25      	ldr	r3, [sp, #148]	; 0x94
 8005150:	44a8      	add	r8, r5
 8005152:	9d11      	ldr	r5, [sp, #68]	; 0x44
 8005154:	42ab      	cmp	r3, r5
 8005156:	db49      	blt.n	80051ec <_svfprintf_r+0xe4c>
 8005158:	9d0a      	ldr	r5, [sp, #40]	; 0x28
 800515a:	07e9      	lsls	r1, r5, #31
 800515c:	d446      	bmi.n	80051ec <_svfprintf_r+0xe4c>
 800515e:	980c      	ldr	r0, [sp, #48]	; 0x30
 8005160:	9911      	ldr	r1, [sp, #68]	; 0x44
 8005162:	ebc8 0500 	rsb	r5, r8, r0
 8005166:	1acb      	subs	r3, r1, r3
 8005168:	42ab      	cmp	r3, r5
 800516a:	bfb8      	it	lt
 800516c:	461d      	movlt	r5, r3
 800516e:	2d00      	cmp	r5, #0
 8005170:	dd0c      	ble.n	800518c <_svfprintf_r+0xdec>
 8005172:	9a2c      	ldr	r2, [sp, #176]	; 0xb0
 8005174:	442c      	add	r4, r5
 8005176:	f8c7 8000 	str.w	r8, [r7]
 800517a:	3201      	adds	r2, #1
 800517c:	607d      	str	r5, [r7, #4]
 800517e:	2a07      	cmp	r2, #7
 8005180:	942d      	str	r4, [sp, #180]	; 0xb4
 8005182:	922c      	str	r2, [sp, #176]	; 0xb0
 8005184:	bfd8      	it	le
 8005186:	3708      	addle	r7, #8
 8005188:	f300 824a 	bgt.w	8005620 <_svfprintf_r+0x1280>
 800518c:	ea25 75e5 	bic.w	r5, r5, r5, asr #31
 8005190:	ebc5 0803 	rsb	r8, r5, r3
 8005194:	f1b8 0f00 	cmp.w	r8, #0
 8005198:	f77f ab29 	ble.w	80047ee <_svfprintf_r+0x44e>
 800519c:	f1b8 0f10 	cmp.w	r8, #16
 80051a0:	9b2c      	ldr	r3, [sp, #176]	; 0xb0
 80051a2:	dd81      	ble.n	80050a8 <_svfprintf_r+0xd08>
 80051a4:	4d47      	ldr	r5, [pc, #284]	; (80052c4 <_svfprintf_r+0xf24>)
 80051a6:	f04f 0a10 	mov.w	sl, #16
 80051aa:	f8dd b02c 	ldr.w	fp, [sp, #44]	; 0x2c
 80051ae:	950f      	str	r5, [sp, #60]	; 0x3c
 80051b0:	9d0e      	ldr	r5, [sp, #56]	; 0x38
 80051b2:	e005      	b.n	80051c0 <_svfprintf_r+0xe20>
 80051b4:	f1a8 0810 	sub.w	r8, r8, #16
 80051b8:	f1b8 0f10 	cmp.w	r8, #16
 80051bc:	f77f af76 	ble.w	80050ac <_svfprintf_r+0xd0c>
 80051c0:	3301      	adds	r3, #1
 80051c2:	3410      	adds	r4, #16
 80051c4:	2b07      	cmp	r3, #7
 80051c6:	e887 0440 	stmia.w	r7, {r6, sl}
 80051ca:	932c      	str	r3, [sp, #176]	; 0xb0
 80051cc:	f107 0708 	add.w	r7, r7, #8
 80051d0:	942d      	str	r4, [sp, #180]	; 0xb4
 80051d2:	ddef      	ble.n	80051b4 <_svfprintf_r+0xe14>
 80051d4:	4628      	mov	r0, r5
 80051d6:	4659      	mov	r1, fp
 80051d8:	aa2b      	add	r2, sp, #172	; 0xac
 80051da:	af38      	add	r7, sp, #224	; 0xe0
 80051dc:	f002 fd84 	bl	8007ce8 <__ssprint_r>
 80051e0:	2800      	cmp	r0, #0
 80051e2:	f47f a9c2 	bne.w	800456a <_svfprintf_r+0x1ca>
 80051e6:	9c2d      	ldr	r4, [sp, #180]	; 0xb4
 80051e8:	9b2c      	ldr	r3, [sp, #176]	; 0xb0
 80051ea:	e7e3      	b.n	80051b4 <_svfprintf_r+0xe14>
 80051ec:	9d1d      	ldr	r5, [sp, #116]	; 0x74
 80051ee:	9a2c      	ldr	r2, [sp, #176]	; 0xb0
 80051f0:	442c      	add	r4, r5
 80051f2:	9d1a      	ldr	r5, [sp, #104]	; 0x68
 80051f4:	3201      	adds	r2, #1
 80051f6:	942d      	str	r4, [sp, #180]	; 0xb4
 80051f8:	2a07      	cmp	r2, #7
 80051fa:	922c      	str	r2, [sp, #176]	; 0xb0
 80051fc:	603d      	str	r5, [r7, #0]
 80051fe:	9d1d      	ldr	r5, [sp, #116]	; 0x74
 8005200:	607d      	str	r5, [r7, #4]
 8005202:	bfd8      	it	le
 8005204:	3708      	addle	r7, #8
 8005206:	ddaa      	ble.n	800515e <_svfprintf_r+0xdbe>
 8005208:	980e      	ldr	r0, [sp, #56]	; 0x38
 800520a:	aa2b      	add	r2, sp, #172	; 0xac
 800520c:	990b      	ldr	r1, [sp, #44]	; 0x2c
 800520e:	f002 fd6b 	bl	8007ce8 <__ssprint_r>
 8005212:	2800      	cmp	r0, #0
 8005214:	f47f a9a9 	bne.w	800456a <_svfprintf_r+0x1ca>
 8005218:	9b25      	ldr	r3, [sp, #148]	; 0x94
 800521a:	af38      	add	r7, sp, #224	; 0xe0
 800521c:	9c2d      	ldr	r4, [sp, #180]	; 0xb4
 800521e:	e79e      	b.n	800515e <_svfprintf_r+0xdbe>
 8005220:	9d0a      	ldr	r5, [sp, #40]	; 0x28
 8005222:	07ea      	lsls	r2, r5, #31
 8005224:	f53f ae1a 	bmi.w	8004e5c <_svfprintf_r+0xabc>
 8005228:	2201      	movs	r2, #1
 800522a:	f104 0a01 	add.w	sl, r4, #1
 800522e:	189c      	adds	r4, r3, r2
 8005230:	f8c7 8000 	str.w	r8, [r7]
 8005234:	2c07      	cmp	r4, #7
 8005236:	f8cd a0b4 	str.w	sl, [sp, #180]	; 0xb4
 800523a:	942c      	str	r4, [sp, #176]	; 0xb0
 800523c:	607a      	str	r2, [r7, #4]
 800523e:	f77f ae42 	ble.w	8004ec6 <_svfprintf_r+0xb26>
 8005242:	e724      	b.n	800508e <_svfprintf_r+0xcee>
 8005244:	980e      	ldr	r0, [sp, #56]	; 0x38
 8005246:	aa2b      	add	r2, sp, #172	; 0xac
 8005248:	990b      	ldr	r1, [sp, #44]	; 0x2c
 800524a:	f002 fd4d 	bl	8007ce8 <__ssprint_r>
 800524e:	2800      	cmp	r0, #0
 8005250:	f47f a98b 	bne.w	800456a <_svfprintf_r+0x1ca>
 8005254:	f8dd a0b4 	ldr.w	sl, [sp, #180]	; 0xb4
 8005258:	af38      	add	r7, sp, #224	; 0xe0
 800525a:	9c2c      	ldr	r4, [sp, #176]	; 0xb0
 800525c:	e61b      	b.n	8004e96 <_svfprintf_r+0xaf6>
 800525e:	980e      	ldr	r0, [sp, #56]	; 0x38
 8005260:	aa2b      	add	r2, sp, #172	; 0xac
 8005262:	990b      	ldr	r1, [sp, #44]	; 0x2c
 8005264:	f002 fd40 	bl	8007ce8 <__ssprint_r>
 8005268:	2800      	cmp	r0, #0
 800526a:	f47f a97e 	bne.w	800456a <_svfprintf_r+0x1ca>
 800526e:	9a2d      	ldr	r2, [sp, #180]	; 0xb4
 8005270:	af38      	add	r7, sp, #224	; 0xe0
 8005272:	9b2c      	ldr	r3, [sp, #176]	; 0xb0
 8005274:	e5ff      	b.n	8004e76 <_svfprintf_r+0xad6>
 8005276:	f10d 0bdf 	add.w	fp, sp, #223	; 0xdf
 800527a:	4620      	mov	r0, r4
 800527c:	4629      	mov	r1, r5
 800527e:	220a      	movs	r2, #10
 8005280:	2300      	movs	r3, #0
 8005282:	f004 fd71 	bl	8009d68 <__aeabi_uldivmod>
 8005286:	46d8      	mov	r8, fp
 8005288:	4620      	mov	r0, r4
 800528a:	4629      	mov	r1, r5
 800528c:	2300      	movs	r3, #0
 800528e:	f10b 3bff 	add.w	fp, fp, #4294967295
 8005292:	3230      	adds	r2, #48	; 0x30
 8005294:	f888 2000 	strb.w	r2, [r8]
 8005298:	220a      	movs	r2, #10
 800529a:	f004 fd65 	bl	8009d68 <__aeabi_uldivmod>
 800529e:	4604      	mov	r4, r0
 80052a0:	460d      	mov	r5, r1
 80052a2:	ea54 0005 	orrs.w	r0, r4, r5
 80052a6:	d1e8      	bne.n	800527a <_svfprintf_r+0xeda>
 80052a8:	f7ff b9af 	b.w	800460a <_svfprintf_r+0x26a>
 80052ac:	2b30      	cmp	r3, #48	; 0x30
 80052ae:	f43f a9ac 	beq.w	800460a <_svfprintf_r+0x26a>
 80052b2:	9c09      	ldr	r4, [sp, #36]	; 0x24
 80052b4:	2330      	movs	r3, #48	; 0x30
 80052b6:	4690      	mov	r8, r2
 80052b8:	f801 3c01 	strb.w	r3, [r1, #-1]
 80052bc:	1aa4      	subs	r4, r4, r2
 80052be:	9410      	str	r4, [sp, #64]	; 0x40
 80052c0:	f7ff b9a7 	b.w	8004612 <_svfprintf_r+0x272>
 80052c4:	0800a484 	stmdaeq	r0, {r2, r7, sl, sp, pc}
 80052c8:	991c      	ldr	r1, [sp, #112]	; 0x70
 80052ca:	f002 fb83 	bl	80079d4 <__fpclassifyd>
 80052ce:	2800      	cmp	r0, #0
 80052d0:	f040 80ab 	bne.w	800542a <_svfprintf_r+0x108a>
 80052d4:	2503      	movs	r5, #3
 80052d6:	9c0a      	ldr	r4, [sp, #40]	; 0x28
 80052d8:	f64a 180c 	movw	r8, #43276	; 0xa90c
 80052dc:	f64a 1308 	movw	r3, #43272	; 0xa908
 80052e0:	950d      	str	r5, [sp, #52]	; 0x34
 80052e2:	f6c0 0800 	movt	r8, #2048	; 0x800
 80052e6:	9d16      	ldr	r5, [sp, #88]	; 0x58
 80052e8:	f6c0 0300 	movt	r3, #2048	; 0x800
 80052ec:	f024 0480 	bic.w	r4, r4, #128	; 0x80
 80052f0:	900c      	str	r0, [sp, #48]	; 0x30
 80052f2:	940a      	str	r4, [sp, #40]	; 0x28
 80052f4:	2d47      	cmp	r5, #71	; 0x47
 80052f6:	bfd8      	it	le
 80052f8:	4698      	movle	r8, r3
 80052fa:	2403      	movs	r4, #3
 80052fc:	9018      	str	r0, [sp, #96]	; 0x60
 80052fe:	9410      	str	r4, [sp, #64]	; 0x40
 8005300:	f89d a08f 	ldrb.w	sl, [sp, #143]	; 0x8f
 8005304:	f7ff b98d 	b.w	8004622 <_svfprintf_r+0x282>
 8005308:	9c14      	ldr	r4, [sp, #80]	; 0x50
 800530a:	1de3      	adds	r3, r4, #7
 800530c:	f023 0307 	bic.w	r3, r3, #7
 8005310:	f103 0508 	add.w	r5, r3, #8
 8005314:	9514      	str	r5, [sp, #80]	; 0x50
 8005316:	681c      	ldr	r4, [r3, #0]
 8005318:	941b      	str	r4, [sp, #108]	; 0x6c
 800531a:	685b      	ldr	r3, [r3, #4]
 800531c:	931c      	str	r3, [sp, #112]	; 0x70
 800531e:	f7ff bb53 	b.w	80049c8 <_svfprintf_r+0x628>
 8005322:	9c0a      	ldr	r4, [sp, #40]	; 0x28
 8005324:	06e2      	lsls	r2, r4, #27
 8005326:	d572      	bpl.n	800540e <_svfprintf_r+0x106e>
 8005328:	9d14      	ldr	r5, [sp, #80]	; 0x50
 800532a:	9c12      	ldr	r4, [sp, #72]	; 0x48
 800532c:	3504      	adds	r5, #4
 800532e:	f855 3c04 	ldr.w	r3, [r5, #-4]
 8005332:	9514      	str	r5, [sp, #80]	; 0x50
 8005334:	601c      	str	r4, [r3, #0]
 8005336:	f7ff b869 	b.w	800440c <_svfprintf_r+0x6c>
 800533a:	980e      	ldr	r0, [sp, #56]	; 0x38
 800533c:	aa2b      	add	r2, sp, #172	; 0xac
 800533e:	990b      	ldr	r1, [sp, #44]	; 0x2c
 8005340:	f002 fcd2 	bl	8007ce8 <__ssprint_r>
 8005344:	2800      	cmp	r0, #0
 8005346:	f47f a910 	bne.w	800456a <_svfprintf_r+0x1ca>
 800534a:	9c2d      	ldr	r4, [sp, #180]	; 0xb4
 800534c:	af38      	add	r7, sp, #224	; 0xe0
 800534e:	e4de      	b.n	8004d0e <_svfprintf_r+0x96e>
 8005350:	9a2c      	ldr	r2, [sp, #176]	; 0xb0
 8005352:	2101      	movs	r1, #1
 8005354:	9d17      	ldr	r5, [sp, #92]	; 0x5c
 8005356:	3401      	adds	r4, #1
 8005358:	440a      	add	r2, r1
 800535a:	942d      	str	r4, [sp, #180]	; 0xb4
 800535c:	2a07      	cmp	r2, #7
 800535e:	922c      	str	r2, [sp, #176]	; 0xb0
 8005360:	603d      	str	r5, [r7, #0]
 8005362:	6079      	str	r1, [r7, #4]
 8005364:	f300 8112 	bgt.w	800558c <_svfprintf_r+0x11ec>
 8005368:	3708      	adds	r7, #8
 800536a:	4619      	mov	r1, r3
 800536c:	b929      	cbnz	r1, 800537a <_svfprintf_r+0xfda>
 800536e:	9d11      	ldr	r5, [sp, #68]	; 0x44
 8005370:	b91d      	cbnz	r5, 800537a <_svfprintf_r+0xfda>
 8005372:	9d0a      	ldr	r5, [sp, #40]	; 0x28
 8005374:	07e8      	lsls	r0, r5, #31
 8005376:	f57f aa3a 	bpl.w	80047ee <_svfprintf_r+0x44e>
 800537a:	9b2c      	ldr	r3, [sp, #176]	; 0xb0
 800537c:	9a1d      	ldr	r2, [sp, #116]	; 0x74
 800537e:	3301      	adds	r3, #1
 8005380:	9d1d      	ldr	r5, [sp, #116]	; 0x74
 8005382:	4422      	add	r2, r4
 8005384:	9c1a      	ldr	r4, [sp, #104]	; 0x68
 8005386:	2b07      	cmp	r3, #7
 8005388:	922d      	str	r2, [sp, #180]	; 0xb4
 800538a:	607d      	str	r5, [r7, #4]
 800538c:	603c      	str	r4, [r7, #0]
 800538e:	bfd8      	it	le
 8005390:	3708      	addle	r7, #8
 8005392:	932c      	str	r3, [sp, #176]	; 0xb0
 8005394:	f300 81ba 	bgt.w	800570c <_svfprintf_r+0x136c>
 8005398:	f1c1 0a00 	rsb	sl, r1, #0
 800539c:	f1ba 0f00 	cmp.w	sl, #0
 80053a0:	f340 8116 	ble.w	80055d0 <_svfprintf_r+0x1230>
 80053a4:	f1ba 0f10 	cmp.w	sl, #16
 80053a8:	bfdc      	itt	le
 80053aa:	4c9c      	ldrle	r4, [pc, #624]	; (800561c <_svfprintf_r+0x127c>)
 80053ac:	940f      	strle	r4, [sp, #60]	; 0x3c
 80053ae:	f340 80f9 	ble.w	80055a4 <_svfprintf_r+0x1204>
 80053b2:	4d9a      	ldr	r5, [pc, #616]	; (800561c <_svfprintf_r+0x127c>)
 80053b4:	2410      	movs	r4, #16
 80053b6:	f8dd b02c 	ldr.w	fp, [sp, #44]	; 0x2c
 80053ba:	950f      	str	r5, [sp, #60]	; 0x3c
 80053bc:	9d0e      	ldr	r5, [sp, #56]	; 0x38
 80053be:	e005      	b.n	80053cc <_svfprintf_r+0x102c>
 80053c0:	f1aa 0a10 	sub.w	sl, sl, #16
 80053c4:	f1ba 0f10 	cmp.w	sl, #16
 80053c8:	f340 80ec 	ble.w	80055a4 <_svfprintf_r+0x1204>
 80053cc:	3301      	adds	r3, #1
 80053ce:	3210      	adds	r2, #16
 80053d0:	2b07      	cmp	r3, #7
 80053d2:	603e      	str	r6, [r7, #0]
 80053d4:	607c      	str	r4, [r7, #4]
 80053d6:	f107 0708 	add.w	r7, r7, #8
 80053da:	932c      	str	r3, [sp, #176]	; 0xb0
 80053dc:	922d      	str	r2, [sp, #180]	; 0xb4
 80053de:	ddef      	ble.n	80053c0 <_svfprintf_r+0x1020>
 80053e0:	4628      	mov	r0, r5
 80053e2:	4659      	mov	r1, fp
 80053e4:	aa2b      	add	r2, sp, #172	; 0xac
 80053e6:	af38      	add	r7, sp, #224	; 0xe0
 80053e8:	f002 fc7e 	bl	8007ce8 <__ssprint_r>
 80053ec:	2800      	cmp	r0, #0
 80053ee:	f47f a8bc 	bne.w	800456a <_svfprintf_r+0x1ca>
 80053f2:	9a2d      	ldr	r2, [sp, #180]	; 0xb4
 80053f4:	9b2c      	ldr	r3, [sp, #176]	; 0xb0
 80053f6:	e7e3      	b.n	80053c0 <_svfprintf_r+0x1020>
 80053f8:	980e      	ldr	r0, [sp, #56]	; 0x38
 80053fa:	aa2b      	add	r2, sp, #172	; 0xac
 80053fc:	990b      	ldr	r1, [sp, #44]	; 0x2c
 80053fe:	f002 fc73 	bl	8007ce8 <__ssprint_r>
 8005402:	2800      	cmp	r0, #0
 8005404:	f47f a8b1 	bne.w	800456a <_svfprintf_r+0x1ca>
 8005408:	9c2d      	ldr	r4, [sp, #180]	; 0xb4
 800540a:	af38      	add	r7, sp, #224	; 0xe0
 800540c:	e496      	b.n	8004d3c <_svfprintf_r+0x99c>
 800540e:	9c14      	ldr	r4, [sp, #80]	; 0x50
 8005410:	9d0a      	ldr	r5, [sp, #40]	; 0x28
 8005412:	3404      	adds	r4, #4
 8005414:	f854 3c04 	ldr.w	r3, [r4, #-4]
 8005418:	f015 0f40 	tst.w	r5, #64	; 0x40
 800541c:	9d12      	ldr	r5, [sp, #72]	; 0x48
 800541e:	9414      	str	r4, [sp, #80]	; 0x50
 8005420:	bf14      	ite	ne
 8005422:	801d      	strhne	r5, [r3, #0]
 8005424:	601d      	streq	r5, [r3, #0]
 8005426:	f7fe bff1 	b.w	800440c <_svfprintf_r+0x6c>
 800542a:	9d0c      	ldr	r5, [sp, #48]	; 0x30
 800542c:	9c16      	ldr	r4, [sp, #88]	; 0x58
 800542e:	3501      	adds	r5, #1
 8005430:	f024 0520 	bic.w	r5, r4, #32
 8005434:	bf04      	itt	eq
 8005436:	2406      	moveq	r4, #6
 8005438:	940c      	streq	r4, [sp, #48]	; 0x30
 800543a:	d006      	beq.n	800544a <_svfprintf_r+0x10aa>
 800543c:	2d47      	cmp	r5, #71	; 0x47
 800543e:	d104      	bne.n	800544a <_svfprintf_r+0x10aa>
 8005440:	9c0c      	ldr	r4, [sp, #48]	; 0x30
 8005442:	2c00      	cmp	r4, #0
 8005444:	bf08      	it	eq
 8005446:	2401      	moveq	r4, #1
 8005448:	940c      	str	r4, [sp, #48]	; 0x30
 800544a:	9b1c      	ldr	r3, [sp, #112]	; 0x70
 800544c:	9c0a      	ldr	r4, [sp, #40]	; 0x28
 800544e:	2b00      	cmp	r3, #0
 8005450:	f444 7480 	orr.w	r4, r4, #256	; 0x100
 8005454:	940f      	str	r4, [sp, #60]	; 0x3c
 8005456:	bfbd      	ittte	lt
 8005458:	461c      	movlt	r4, r3
 800545a:	f04f 0b2d 	movlt.w	fp, #45	; 0x2d
 800545e:	f104 4a00 	addlt.w	sl, r4, #2147483648	; 0x80000000
 8005462:	f8dd a070 	ldrge.w	sl, [sp, #112]	; 0x70
 8005466:	bfa8      	it	ge
 8005468:	f04f 0b00 	movge.w	fp, #0
 800546c:	f1b5 0446 	subs.w	r4, r5, #70	; 0x46
 8005470:	4261      	negs	r1, r4
 8005472:	4161      	adcs	r1, r4
 8005474:	2900      	cmp	r1, #0
 8005476:	d030      	beq.n	80054da <_svfprintf_r+0x113a>
 8005478:	2003      	movs	r0, #3
 800547a:	9c0c      	ldr	r4, [sp, #48]	; 0x30
 800547c:	4653      	mov	r3, sl
 800547e:	9000      	str	r0, [sp, #0]
 8005480:	a825      	add	r0, sp, #148	; 0x94
 8005482:	9a1b      	ldr	r2, [sp, #108]	; 0x6c
 8005484:	9002      	str	r0, [sp, #8]
 8005486:	a826      	add	r0, sp, #152	; 0x98
 8005488:	9401      	str	r4, [sp, #4]
 800548a:	9003      	str	r0, [sp, #12]
 800548c:	a829      	add	r0, sp, #164	; 0xa4
 800548e:	9004      	str	r0, [sp, #16]
 8005490:	980e      	ldr	r0, [sp, #56]	; 0x38
 8005492:	9107      	str	r1, [sp, #28]
 8005494:	f000 fa86 	bl	80059a4 <_dtoa_r>
 8005498:	2d47      	cmp	r5, #71	; 0x47
 800549a:	9907      	ldr	r1, [sp, #28]
 800549c:	4680      	mov	r8, r0
 800549e:	d103      	bne.n	80054a8 <_svfprintf_r+0x1108>
 80054a0:	9c0a      	ldr	r4, [sp, #40]	; 0x28
 80054a2:	07e0      	lsls	r0, r4, #31
 80054a4:	f140 80f0 	bpl.w	8005688 <_svfprintf_r+0x12e8>
 80054a8:	9c0c      	ldr	r4, [sp, #48]	; 0x30
 80054aa:	4444      	add	r4, r8
 80054ac:	b351      	cbz	r1, 8005504 <_svfprintf_r+0x1164>
 80054ae:	f898 3000 	ldrb.w	r3, [r8]
 80054b2:	2b30      	cmp	r3, #48	; 0x30
 80054b4:	f000 8184 	beq.w	80057c0 <_svfprintf_r+0x1420>
 80054b8:	9b25      	ldr	r3, [sp, #148]	; 0x94
 80054ba:	441c      	add	r4, r3
 80054bc:	e022      	b.n	8005504 <_svfprintf_r+0x1164>
 80054be:	980e      	ldr	r0, [sp, #56]	; 0x38
 80054c0:	2140      	movs	r1, #64	; 0x40
 80054c2:	f001 fa93 	bl	80069ec <_malloc_r>
 80054c6:	6020      	str	r0, [r4, #0]
 80054c8:	6120      	str	r0, [r4, #16]
 80054ca:	2800      	cmp	r0, #0
 80054cc:	f000 81b6 	beq.w	800583c <_svfprintf_r+0x149c>
 80054d0:	9c0b      	ldr	r4, [sp, #44]	; 0x2c
 80054d2:	2340      	movs	r3, #64	; 0x40
 80054d4:	6163      	str	r3, [r4, #20]
 80054d6:	f7fe bf79 	b.w	80043cc <_svfprintf_r+0x2c>
 80054da:	2d45      	cmp	r5, #69	; 0x45
 80054dc:	f040 8131 	bne.w	8005742 <_svfprintf_r+0x13a2>
 80054e0:	980c      	ldr	r0, [sp, #48]	; 0x30
 80054e2:	2102      	movs	r1, #2
 80054e4:	9a1b      	ldr	r2, [sp, #108]	; 0x6c
 80054e6:	4653      	mov	r3, sl
 80054e8:	1c44      	adds	r4, r0, #1
 80054ea:	9100      	str	r1, [sp, #0]
 80054ec:	9401      	str	r4, [sp, #4]
 80054ee:	a925      	add	r1, sp, #148	; 0x94
 80054f0:	980e      	ldr	r0, [sp, #56]	; 0x38
 80054f2:	9102      	str	r1, [sp, #8]
 80054f4:	a926      	add	r1, sp, #152	; 0x98
 80054f6:	9103      	str	r1, [sp, #12]
 80054f8:	a929      	add	r1, sp, #164	; 0xa4
 80054fa:	9104      	str	r1, [sp, #16]
 80054fc:	f000 fa52 	bl	80059a4 <_dtoa_r>
 8005500:	4680      	mov	r8, r0
 8005502:	4404      	add	r4, r0
 8005504:	2300      	movs	r3, #0
 8005506:	981b      	ldr	r0, [sp, #108]	; 0x6c
 8005508:	2200      	movs	r2, #0
 800550a:	4651      	mov	r1, sl
 800550c:	f004 fbb2 	bl	8009c74 <__aeabi_dcmpeq>
 8005510:	4623      	mov	r3, r4
 8005512:	b948      	cbnz	r0, 8005528 <_svfprintf_r+0x1188>
 8005514:	9b29      	ldr	r3, [sp, #164]	; 0xa4
 8005516:	429c      	cmp	r4, r3
 8005518:	d906      	bls.n	8005528 <_svfprintf_r+0x1188>
 800551a:	2130      	movs	r1, #48	; 0x30
 800551c:	1c5a      	adds	r2, r3, #1
 800551e:	9229      	str	r2, [sp, #164]	; 0xa4
 8005520:	7019      	strb	r1, [r3, #0]
 8005522:	9b29      	ldr	r3, [sp, #164]	; 0xa4
 8005524:	429c      	cmp	r4, r3
 8005526:	d8f9      	bhi.n	800551c <_svfprintf_r+0x117c>
 8005528:	2d47      	cmp	r5, #71	; 0x47
 800552a:	ebc8 0303 	rsb	r3, r8, r3
 800552e:	9311      	str	r3, [sp, #68]	; 0x44
 8005530:	f000 80ae 	beq.w	8005690 <_svfprintf_r+0x12f0>
 8005534:	9c16      	ldr	r4, [sp, #88]	; 0x58
 8005536:	2c65      	cmp	r4, #101	; 0x65
 8005538:	f340 818a 	ble.w	8005850 <_svfprintf_r+0x14b0>
 800553c:	9d16      	ldr	r5, [sp, #88]	; 0x58
 800553e:	2d66      	cmp	r5, #102	; 0x66
 8005540:	f000 8101 	beq.w	8005746 <_svfprintf_r+0x13a6>
 8005544:	9c25      	ldr	r4, [sp, #148]	; 0x94
 8005546:	9418      	str	r4, [sp, #96]	; 0x60
 8005548:	9c18      	ldr	r4, [sp, #96]	; 0x60
 800554a:	9d11      	ldr	r5, [sp, #68]	; 0x44
 800554c:	42ac      	cmp	r4, r5
 800554e:	f2c0 80ea 	blt.w	8005726 <_svfprintf_r+0x1386>
 8005552:	9c0a      	ldr	r4, [sp, #40]	; 0x28
 8005554:	9d18      	ldr	r5, [sp, #96]	; 0x60
 8005556:	07e0      	lsls	r0, r4, #31
 8005558:	bf4b      	itete	mi
 800555a:	3501      	addmi	r5, #1
 800555c:	ea25 73e5 	bicpl.w	r3, r5, r5, asr #31
 8005560:	ea25 73e5 	bicmi.w	r3, r5, r5, asr #31
 8005564:	2467      	movpl	r4, #103	; 0x67
 8005566:	bf4d      	iteet	mi
 8005568:	2467      	movmi	r4, #103	; 0x67
 800556a:	9510      	strpl	r5, [sp, #64]	; 0x40
 800556c:	9416      	strpl	r4, [sp, #88]	; 0x58
 800556e:	9510      	strmi	r5, [sp, #64]	; 0x40
 8005570:	bf48      	it	mi
 8005572:	9416      	strmi	r4, [sp, #88]	; 0x58
 8005574:	f1bb 0f00 	cmp.w	fp, #0
 8005578:	d175      	bne.n	8005666 <_svfprintf_r+0x12c6>
 800557a:	9c0f      	ldr	r4, [sp, #60]	; 0x3c
 800557c:	930d      	str	r3, [sp, #52]	; 0x34
 800557e:	f8cd b030 	str.w	fp, [sp, #48]	; 0x30
 8005582:	940a      	str	r4, [sp, #40]	; 0x28
 8005584:	f89d a08f 	ldrb.w	sl, [sp, #143]	; 0x8f
 8005588:	f7ff b84b 	b.w	8004622 <_svfprintf_r+0x282>
 800558c:	980e      	ldr	r0, [sp, #56]	; 0x38
 800558e:	aa2b      	add	r2, sp, #172	; 0xac
 8005590:	990b      	ldr	r1, [sp, #44]	; 0x2c
 8005592:	f002 fba9 	bl	8007ce8 <__ssprint_r>
 8005596:	2800      	cmp	r0, #0
 8005598:	f47e afe7 	bne.w	800456a <_svfprintf_r+0x1ca>
 800559c:	9925      	ldr	r1, [sp, #148]	; 0x94
 800559e:	af38      	add	r7, sp, #224	; 0xe0
 80055a0:	9c2d      	ldr	r4, [sp, #180]	; 0xb4
 80055a2:	e6e3      	b.n	800536c <_svfprintf_r+0xfcc>
 80055a4:	3301      	adds	r3, #1
 80055a6:	9c0f      	ldr	r4, [sp, #60]	; 0x3c
 80055a8:	2b07      	cmp	r3, #7
 80055aa:	4452      	add	r2, sl
 80055ac:	932c      	str	r3, [sp, #176]	; 0xb0
 80055ae:	e887 0410 	stmia.w	r7, {r4, sl}
 80055b2:	bfd8      	it	le
 80055b4:	3708      	addle	r7, #8
 80055b6:	922d      	str	r2, [sp, #180]	; 0xb4
 80055b8:	dd0a      	ble.n	80055d0 <_svfprintf_r+0x1230>
 80055ba:	980e      	ldr	r0, [sp, #56]	; 0x38
 80055bc:	aa2b      	add	r2, sp, #172	; 0xac
 80055be:	990b      	ldr	r1, [sp, #44]	; 0x2c
 80055c0:	f002 fb92 	bl	8007ce8 <__ssprint_r>
 80055c4:	2800      	cmp	r0, #0
 80055c6:	f47e afd0 	bne.w	800456a <_svfprintf_r+0x1ca>
 80055ca:	9a2d      	ldr	r2, [sp, #180]	; 0xb4
 80055cc:	af38      	add	r7, sp, #224	; 0xe0
 80055ce:	9b2c      	ldr	r3, [sp, #176]	; 0xb0
 80055d0:	3301      	adds	r3, #1
 80055d2:	9d11      	ldr	r5, [sp, #68]	; 0x44
 80055d4:	9c11      	ldr	r4, [sp, #68]	; 0x44
 80055d6:	2b07      	cmp	r3, #7
 80055d8:	932c      	str	r3, [sp, #176]	; 0xb0
 80055da:	4414      	add	r4, r2
 80055dc:	f8c7 8000 	str.w	r8, [r7]
 80055e0:	942d      	str	r4, [sp, #180]	; 0xb4
 80055e2:	607d      	str	r5, [r7, #4]
 80055e4:	f77f a902 	ble.w	80047ec <_svfprintf_r+0x44c>
 80055e8:	e47a      	b.n	8004ee0 <_svfprintf_r+0xb40>
 80055ea:	950c      	str	r5, [sp, #48]	; 0x30
 80055ec:	f002 fb4c 	bl	8007c88 <strlen>
 80055f0:	9414      	str	r4, [sp, #80]	; 0x50
 80055f2:	9c0c      	ldr	r4, [sp, #48]	; 0x30
 80055f4:	f89d a08f 	ldrb.w	sl, [sp, #143]	; 0x8f
 80055f8:	9418      	str	r4, [sp, #96]	; 0x60
 80055fa:	ea20 75e0 	bic.w	r5, r0, r0, asr #31
 80055fe:	9010      	str	r0, [sp, #64]	; 0x40
 8005600:	950d      	str	r5, [sp, #52]	; 0x34
 8005602:	f7ff b80e 	b.w	8004622 <_svfprintf_r+0x282>
 8005606:	980e      	ldr	r0, [sp, #56]	; 0x38
 8005608:	aa2b      	add	r2, sp, #172	; 0xac
 800560a:	990b      	ldr	r1, [sp, #44]	; 0x2c
 800560c:	f002 fb6c 	bl	8007ce8 <__ssprint_r>
 8005610:	2800      	cmp	r0, #0
 8005612:	f47e afaa 	bne.w	800456a <_svfprintf_r+0x1ca>
 8005616:	9c2d      	ldr	r4, [sp, #180]	; 0xb4
 8005618:	af38      	add	r7, sp, #224	; 0xe0
 800561a:	e4b1      	b.n	8004f80 <_svfprintf_r+0xbe0>
 800561c:	0800a484 	stmdaeq	r0, {r2, r7, sl, sp, pc}
 8005620:	980e      	ldr	r0, [sp, #56]	; 0x38
 8005622:	aa2b      	add	r2, sp, #172	; 0xac
 8005624:	990b      	ldr	r1, [sp, #44]	; 0x2c
 8005626:	f002 fb5f 	bl	8007ce8 <__ssprint_r>
 800562a:	2800      	cmp	r0, #0
 800562c:	f47e af9d 	bne.w	800456a <_svfprintf_r+0x1ca>
 8005630:	9b25      	ldr	r3, [sp, #148]	; 0x94
 8005632:	af38      	add	r7, sp, #224	; 0xe0
 8005634:	9a11      	ldr	r2, [sp, #68]	; 0x44
 8005636:	9c2d      	ldr	r4, [sp, #180]	; 0xb4
 8005638:	1ad3      	subs	r3, r2, r3
 800563a:	e5a7      	b.n	800518c <_svfprintf_r+0xdec>
 800563c:	9d0c      	ldr	r5, [sp, #48]	; 0x30
 800563e:	46c2      	mov	sl, r8
 8005640:	f64a 1838 	movw	r8, #43320	; 0xa938
 8005644:	9414      	str	r4, [sp, #80]	; 0x50
 8005646:	2d06      	cmp	r5, #6
 8005648:	bf28      	it	cs
 800564a:	2506      	movcs	r5, #6
 800564c:	f8cd a030 	str.w	sl, [sp, #48]	; 0x30
 8005650:	9510      	str	r5, [sp, #64]	; 0x40
 8005652:	4654      	mov	r4, sl
 8005654:	ea25 75e5 	bic.w	r5, r5, r5, asr #31
 8005658:	f8cd a060 	str.w	sl, [sp, #96]	; 0x60
 800565c:	950d      	str	r5, [sp, #52]	; 0x34
 800565e:	f6c0 0800 	movt	r8, #2048	; 0x800
 8005662:	f7fe bfde 	b.w	8004622 <_svfprintf_r+0x282>
 8005666:	9d0f      	ldr	r5, [sp, #60]	; 0x3c
 8005668:	f04f 0a2d 	mov.w	sl, #45	; 0x2d
 800566c:	2400      	movs	r4, #0
 800566e:	930d      	str	r3, [sp, #52]	; 0x34
 8005670:	f88d a08f 	strb.w	sl, [sp, #143]	; 0x8f
 8005674:	950a      	str	r5, [sp, #40]	; 0x28
 8005676:	940c      	str	r4, [sp, #48]	; 0x30
 8005678:	f7fe bfd6 	b.w	8004628 <_svfprintf_r+0x288>
 800567c:	f04f 0a2d 	mov.w	sl, #45	; 0x2d
 8005680:	f88d a08f 	strb.w	sl, [sp, #143]	; 0x8f
 8005684:	f7ff b9b2 	b.w	80049ec <_svfprintf_r+0x64c>
 8005688:	9b29      	ldr	r3, [sp, #164]	; 0xa4
 800568a:	ebc8 0303 	rsb	r3, r8, r3
 800568e:	9311      	str	r3, [sp, #68]	; 0x44
 8005690:	9b25      	ldr	r3, [sp, #148]	; 0x94
 8005692:	1cda      	adds	r2, r3, #3
 8005694:	db11      	blt.n	80056ba <_svfprintf_r+0x131a>
 8005696:	9c0c      	ldr	r4, [sp, #48]	; 0x30
 8005698:	429c      	cmp	r4, r3
 800569a:	db0e      	blt.n	80056ba <_svfprintf_r+0x131a>
 800569c:	9318      	str	r3, [sp, #96]	; 0x60
 800569e:	e753      	b.n	8005548 <_svfprintf_r+0x11a8>
 80056a0:	9d0c      	ldr	r5, [sp, #48]	; 0x30
 80056a2:	9414      	str	r4, [sp, #80]	; 0x50
 80056a4:	ea25 75e5 	bic.w	r5, r5, r5, asr #31
 80056a8:	950d      	str	r5, [sp, #52]	; 0x34
 80056aa:	9d0c      	ldr	r5, [sp, #48]	; 0x30
 80056ac:	9018      	str	r0, [sp, #96]	; 0x60
 80056ae:	900c      	str	r0, [sp, #48]	; 0x30
 80056b0:	9510      	str	r5, [sp, #64]	; 0x40
 80056b2:	f89d a08f 	ldrb.w	sl, [sp, #143]	; 0x8f
 80056b6:	f7fe bfb4 	b.w	8004622 <_svfprintf_r+0x282>
 80056ba:	9d16      	ldr	r5, [sp, #88]	; 0x58
 80056bc:	3d02      	subs	r5, #2
 80056be:	9516      	str	r5, [sp, #88]	; 0x58
 80056c0:	3b01      	subs	r3, #1
 80056c2:	9d16      	ldr	r5, [sp, #88]	; 0x58
 80056c4:	2b00      	cmp	r3, #0
 80056c6:	9325      	str	r3, [sp, #148]	; 0x94
 80056c8:	bfba      	itte	lt
 80056ca:	425b      	neglt	r3, r3
 80056cc:	222d      	movlt	r2, #45	; 0x2d
 80056ce:	222b      	movge	r2, #43	; 0x2b
 80056d0:	2b09      	cmp	r3, #9
 80056d2:	f88d 509c 	strb.w	r5, [sp, #156]	; 0x9c
 80056d6:	f88d 209d 	strb.w	r2, [sp, #157]	; 0x9d
 80056da:	dc43      	bgt.n	8005764 <_svfprintf_r+0x13c4>
 80056dc:	3330      	adds	r3, #48	; 0x30
 80056de:	f88d 309f 	strb.w	r3, [sp, #159]	; 0x9f
 80056e2:	2330      	movs	r3, #48	; 0x30
 80056e4:	f88d 309e 	strb.w	r3, [sp, #158]	; 0x9e
 80056e8:	ab28      	add	r3, sp, #160	; 0xa0
 80056ea:	9d11      	ldr	r5, [sp, #68]	; 0x44
 80056ec:	aa27      	add	r2, sp, #156	; 0x9c
 80056ee:	9c11      	ldr	r4, [sp, #68]	; 0x44
 80056f0:	1a9a      	subs	r2, r3, r2
 80056f2:	2d01      	cmp	r5, #1
 80056f4:	921e      	str	r2, [sp, #120]	; 0x78
 80056f6:	4414      	add	r4, r2
 80056f8:	9410      	str	r4, [sp, #64]	; 0x40
 80056fa:	dd78      	ble.n	80057ee <_svfprintf_r+0x144e>
 80056fc:	9b10      	ldr	r3, [sp, #64]	; 0x40
 80056fe:	2400      	movs	r4, #0
 8005700:	9418      	str	r4, [sp, #96]	; 0x60
 8005702:	3301      	adds	r3, #1
 8005704:	9310      	str	r3, [sp, #64]	; 0x40
 8005706:	ea23 73e3 	bic.w	r3, r3, r3, asr #31
 800570a:	e733      	b.n	8005574 <_svfprintf_r+0x11d4>
 800570c:	980e      	ldr	r0, [sp, #56]	; 0x38
 800570e:	aa2b      	add	r2, sp, #172	; 0xac
 8005710:	990b      	ldr	r1, [sp, #44]	; 0x2c
 8005712:	f002 fae9 	bl	8007ce8 <__ssprint_r>
 8005716:	2800      	cmp	r0, #0
 8005718:	f47e af27 	bne.w	800456a <_svfprintf_r+0x1ca>
 800571c:	9925      	ldr	r1, [sp, #148]	; 0x94
 800571e:	af38      	add	r7, sp, #224	; 0xe0
 8005720:	9a2d      	ldr	r2, [sp, #180]	; 0xb4
 8005722:	9b2c      	ldr	r3, [sp, #176]	; 0xb0
 8005724:	e638      	b.n	8005398 <_svfprintf_r+0xff8>
 8005726:	9d18      	ldr	r5, [sp, #96]	; 0x60
 8005728:	9c11      	ldr	r4, [sp, #68]	; 0x44
 800572a:	2d00      	cmp	r5, #0
 800572c:	bfd4      	ite	le
 800572e:	f1c5 0302 	rsble	r3, r5, #2
 8005732:	2301      	movgt	r3, #1
 8005734:	441c      	add	r4, r3
 8005736:	2567      	movs	r5, #103	; 0x67
 8005738:	9410      	str	r4, [sp, #64]	; 0x40
 800573a:	ea24 73e4 	bic.w	r3, r4, r4, asr #31
 800573e:	9516      	str	r5, [sp, #88]	; 0x58
 8005740:	e718      	b.n	8005574 <_svfprintf_r+0x11d4>
 8005742:	2002      	movs	r0, #2
 8005744:	e699      	b.n	800547a <_svfprintf_r+0x10da>
 8005746:	9d25      	ldr	r5, [sp, #148]	; 0x94
 8005748:	2d00      	cmp	r5, #0
 800574a:	9518      	str	r5, [sp, #96]	; 0x60
 800574c:	dd58      	ble.n	8005800 <_svfprintf_r+0x1460>
 800574e:	9c0c      	ldr	r4, [sp, #48]	; 0x30
 8005750:	2c00      	cmp	r4, #0
 8005752:	d144      	bne.n	80057de <_svfprintf_r+0x143e>
 8005754:	9d0a      	ldr	r5, [sp, #40]	; 0x28
 8005756:	07ed      	lsls	r5, r5, #31
 8005758:	d441      	bmi.n	80057de <_svfprintf_r+0x143e>
 800575a:	9c18      	ldr	r4, [sp, #96]	; 0x60
 800575c:	ea24 73e4 	bic.w	r3, r4, r4, asr #31
 8005760:	9410      	str	r4, [sp, #64]	; 0x40
 8005762:	e707      	b.n	8005574 <_svfprintf_r+0x11d4>
 8005764:	f246 6167 	movw	r1, #26215	; 0x6667
 8005768:	f10d 05aa 	add.w	r5, sp, #170	; 0xaa
 800576c:	f2c6 6166 	movt	r1, #26214	; 0x6666
 8005770:	fb81 2003 	smull	r2, r0, r1, r3
 8005774:	17da      	asrs	r2, r3, #31
 8005776:	462c      	mov	r4, r5
 8005778:	3d01      	subs	r5, #1
 800577a:	ebc2 02a0 	rsb	r2, r2, r0, asr #2
 800577e:	eb02 0082 	add.w	r0, r2, r2, lsl #2
 8005782:	eba3 0040 	sub.w	r0, r3, r0, lsl #1
 8005786:	4613      	mov	r3, r2
 8005788:	2b09      	cmp	r3, #9
 800578a:	f100 0230 	add.w	r2, r0, #48	; 0x30
 800578e:	7022      	strb	r2, [r4, #0]
 8005790:	dcee      	bgt.n	8005770 <_svfprintf_r+0x13d0>
 8005792:	f10d 00ab 	add.w	r0, sp, #171	; 0xab
 8005796:	3330      	adds	r3, #48	; 0x30
 8005798:	42a8      	cmp	r0, r5
 800579a:	b2da      	uxtb	r2, r3
 800579c:	f804 2c01 	strb.w	r2, [r4, #-1]
 80057a0:	d953      	bls.n	800584a <_svfprintf_r+0x14aa>
 80057a2:	f10d 019d 	add.w	r1, sp, #157	; 0x9d
 80057a6:	4623      	mov	r3, r4
 80057a8:	e001      	b.n	80057ae <_svfprintf_r+0x140e>
 80057aa:	f813 2b01 	ldrb.w	r2, [r3], #1
 80057ae:	4283      	cmp	r3, r0
 80057b0:	f801 2f01 	strb.w	r2, [r1, #1]!
 80057b4:	d1f9      	bne.n	80057aa <_svfprintf_r+0x140a>
 80057b6:	ad48      	add	r5, sp, #288	; 0x120
 80057b8:	ebc4 0345 	rsb	r3, r4, r5, lsl #1
 80057bc:	3bf6      	subs	r3, #246	; 0xf6
 80057be:	e794      	b.n	80056ea <_svfprintf_r+0x134a>
 80057c0:	981b      	ldr	r0, [sp, #108]	; 0x6c
 80057c2:	2200      	movs	r2, #0
 80057c4:	2300      	movs	r3, #0
 80057c6:	4651      	mov	r1, sl
 80057c8:	f004 fa54 	bl	8009c74 <__aeabi_dcmpeq>
 80057cc:	2800      	cmp	r0, #0
 80057ce:	f47f ae73 	bne.w	80054b8 <_svfprintf_r+0x1118>
 80057d2:	980c      	ldr	r0, [sp, #48]	; 0x30
 80057d4:	f1c0 0301 	rsb	r3, r0, #1
 80057d8:	9325      	str	r3, [sp, #148]	; 0x94
 80057da:	441c      	add	r4, r3
 80057dc:	e692      	b.n	8005504 <_svfprintf_r+0x1164>
 80057de:	9d0c      	ldr	r5, [sp, #48]	; 0x30
 80057e0:	9c18      	ldr	r4, [sp, #96]	; 0x60
 80057e2:	1c6b      	adds	r3, r5, #1
 80057e4:	441c      	add	r4, r3
 80057e6:	9410      	str	r4, [sp, #64]	; 0x40
 80057e8:	ea24 73e4 	bic.w	r3, r4, r4, asr #31
 80057ec:	e6c2      	b.n	8005574 <_svfprintf_r+0x11d4>
 80057ee:	9c0a      	ldr	r4, [sp, #40]	; 0x28
 80057f0:	f014 0301 	ands.w	r3, r4, #1
 80057f4:	d182      	bne.n	80056fc <_svfprintf_r+0x135c>
 80057f6:	9d10      	ldr	r5, [sp, #64]	; 0x40
 80057f8:	9318      	str	r3, [sp, #96]	; 0x60
 80057fa:	ea25 73e5 	bic.w	r3, r5, r5, asr #31
 80057fe:	e6b9      	b.n	8005574 <_svfprintf_r+0x11d4>
 8005800:	9d0c      	ldr	r5, [sp, #48]	; 0x30
 8005802:	b935      	cbnz	r5, 8005812 <_svfprintf_r+0x1472>
 8005804:	9c0a      	ldr	r4, [sp, #40]	; 0x28
 8005806:	07e4      	lsls	r4, r4, #31
 8005808:	bf5c      	itt	pl
 800580a:	2301      	movpl	r3, #1
 800580c:	9310      	strpl	r3, [sp, #64]	; 0x40
 800580e:	f57f aeb1 	bpl.w	8005574 <_svfprintf_r+0x11d4>
 8005812:	9d0c      	ldr	r5, [sp, #48]	; 0x30
 8005814:	3502      	adds	r5, #2
 8005816:	9510      	str	r5, [sp, #64]	; 0x40
 8005818:	ea25 73e5 	bic.w	r3, r5, r5, asr #31
 800581c:	e6aa      	b.n	8005574 <_svfprintf_r+0x11d4>
 800581e:	9d14      	ldr	r5, [sp, #80]	; 0x50
 8005820:	f899 3001 	ldrb.w	r3, [r9, #1]
 8005824:	46a1      	mov	r9, r4
 8005826:	682d      	ldr	r5, [r5, #0]
 8005828:	950c      	str	r5, [sp, #48]	; 0x30
 800582a:	9d14      	ldr	r5, [sp, #80]	; 0x50
 800582c:	1d29      	adds	r1, r5, #4
 800582e:	9d0c      	ldr	r5, [sp, #48]	; 0x30
 8005830:	9114      	str	r1, [sp, #80]	; 0x50
 8005832:	2d00      	cmp	r5, #0
 8005834:	f6be ae1d 	bge.w	8004472 <_svfprintf_r+0xd2>
 8005838:	f7fe be18 	b.w	800446c <_svfprintf_r+0xcc>
 800583c:	9d0e      	ldr	r5, [sp, #56]	; 0x38
 800583e:	230c      	movs	r3, #12
 8005840:	f04f 30ff 	mov.w	r0, #4294967295
 8005844:	602b      	str	r3, [r5, #0]
 8005846:	f7fe be98 	b.w	800457a <_svfprintf_r+0x1da>
 800584a:	f10d 039e 	add.w	r3, sp, #158	; 0x9e
 800584e:	e74c      	b.n	80056ea <_svfprintf_r+0x134a>
 8005850:	9b25      	ldr	r3, [sp, #148]	; 0x94
 8005852:	e735      	b.n	80056c0 <_svfprintf_r+0x1320>
 8005854:	0000      	movs	r0, r0
	...

08005858 <quorem>:
 8005858:	e92d 4ff0 	stmdb	sp!, {r4, r5, r6, r7, r8, r9, sl, fp, lr}
 800585c:	468c      	mov	ip, r1
 800585e:	6903      	ldr	r3, [r0, #16]
 8005860:	4683      	mov	fp, r0
 8005862:	690d      	ldr	r5, [r1, #16]
 8005864:	b085      	sub	sp, #20
 8005866:	429d      	cmp	r5, r3
 8005868:	bfc8      	it	gt
 800586a:	2000      	movgt	r0, #0
 800586c:	f300 8096 	bgt.w	800599c <quorem+0x144>
 8005870:	3d01      	subs	r5, #1
 8005872:	f101 0414 	add.w	r4, r1, #20
 8005876:	f10b 0a14 	add.w	sl, fp, #20
 800587a:	f854 1025 	ldr.w	r1, [r4, r5, lsl #2]
 800587e:	00aa      	lsls	r2, r5, #2
 8005880:	f85a 0025 	ldr.w	r0, [sl, r5, lsl #2]
 8005884:	4691      	mov	r9, r2
 8005886:	3101      	adds	r1, #1
 8005888:	9202      	str	r2, [sp, #8]
 800588a:	f8cd c004 	str.w	ip, [sp, #4]
 800588e:	4452      	add	r2, sl
 8005890:	9203      	str	r2, [sp, #12]
 8005892:	f003 fc91 	bl	80091b8 <__aeabi_uidiv>
 8005896:	44a1      	add	r9, r4
 8005898:	f8dd c004 	ldr.w	ip, [sp, #4]
 800589c:	4680      	mov	r8, r0
 800589e:	2800      	cmp	r0, #0
 80058a0:	d041      	beq.n	8005926 <quorem+0xce>
 80058a2:	2100      	movs	r1, #0
 80058a4:	4622      	mov	r2, r4
 80058a6:	4608      	mov	r0, r1
 80058a8:	4653      	mov	r3, sl
 80058aa:	460f      	mov	r7, r1
 80058ac:	f852 1b04 	ldr.w	r1, [r2], #4
 80058b0:	681e      	ldr	r6, [r3, #0]
 80058b2:	4591      	cmp	r9, r2
 80058b4:	fa1f fe81 	uxth.w	lr, r1
 80058b8:	ea4f 4111 	mov.w	r1, r1, lsr #16
 80058bc:	fb0e 7708 	mla	r7, lr, r8, r7
 80058c0:	fa1f fe86 	uxth.w	lr, r6
 80058c4:	fb01 f108 	mul.w	r1, r1, r8
 80058c8:	eb01 4117 	add.w	r1, r1, r7, lsr #16
 80058cc:	b2bf      	uxth	r7, r7
 80058ce:	ebc7 0000 	rsb	r0, r7, r0
 80058d2:	4486      	add	lr, r0
 80058d4:	b288      	uxth	r0, r1
 80058d6:	ebc0 4016 	rsb	r0, r0, r6, lsr #16
 80058da:	ea4f 4711 	mov.w	r7, r1, lsr #16
 80058de:	eb00 402e 	add.w	r0, r0, lr, asr #16
 80058e2:	fa1f fe8e 	uxth.w	lr, lr
 80058e6:	ea4e 4100 	orr.w	r1, lr, r0, lsl #16
 80058ea:	ea4f 4020 	mov.w	r0, r0, asr #16
 80058ee:	f843 1b04 	str.w	r1, [r3], #4
 80058f2:	d2db      	bcs.n	80058ac <quorem+0x54>
 80058f4:	9a02      	ldr	r2, [sp, #8]
 80058f6:	f85a 3002 	ldr.w	r3, [sl, r2]
